

Microchip Technology PIC18 LITE Macro Assembler V1.35 build -356382666 
                                                                                               Tue Mar 22 18:59:52 2016

Microchip Technology Omniscient Code Generator v1.35 (Free mode) build 201507080246
     1                           	processor	18F4480
     2                           	fnconf	param0,??,?,0
     3                           	opt	pw 120
     4                           	opt	lm
     5                           	psect	idataCOMRAM,global,class=CODE,delta=1
     6                           	psect	idataBANK0,global,class=CODE,delta=1
     7                           	psect	cinit,global,reloc=2,class=CODE,delta=1
     8                           	psect	bitbssCOMRAM,global,bit,class=COMRAM,space=1,delta=1
     9                           	psect	bssCOMRAM,global,class=COMRAM,space=1,delta=1
    10                           	psect	dataCOMRAM,global,class=COMRAM,space=1,delta=1
    11                           	psect	bssBANK0,global,class=BANK0,space=1,delta=1
    12                           	psect	dataBANK0,global,class=BANK0,space=1,delta=1
    13                           	psect	cstackBANK0,global,class=BANK0,space=1,delta=1
    14                           	psect	cstackCOMRAM,global,class=COMRAM,space=1,delta=1
    15                           	psect	text0,global,reloc=2,class=CODE,delta=1
    16                           	psect	text1,global,reloc=2,class=CODE,delta=1
    17                           	psect	text2,global,reloc=2,class=CODE,delta=1
    18                           	psect	text3,global,reloc=2,class=CODE,delta=1
    19                           	psect	text4,global,reloc=2,class=CODE,delta=1
    20                           	psect	text5,global,reloc=2,class=CODE,delta=1
    21                           	psect	text6,global,reloc=2,class=CODE,delta=1
    22                           	psect	text7,global,reloc=2,class=CODE,delta=1
    23                           	psect	text8,global,reloc=2,class=CODE,delta=1
    24                           	psect	text9,global,reloc=2,class=CODE,delta=1
    25                           	psect	text10,global,reloc=2,class=CODE,delta=1
    26                           	psect	text11,global,reloc=2,class=CODE,delta=1
    27                           	psect	text12,global,reloc=2,class=CODE,delta=1
    28                           	psect	text13,global,reloc=2,class=CODE,delta=1
    29                           	psect	text14,global,reloc=2,class=CODE,delta=1
    30                           	psect	intcodelo,global,reloc=2,class=CODE,delta=1
    31                           	psect	text16,global,reloc=2,class=CODE,delta=1
    32                           	psect	text17,global,reloc=2,class=CODE,delta=1
    33                           	psect	text18,global,reloc=2,class=CODE,delta=1
    34                           	psect	text19,global,reloc=2,class=CODE,delta=1
    35                           	psect	text20,global,reloc=2,class=CODE,delta=1
    36                           	psect	intcode,global,reloc=2,class=CODE,delta=1
    37                           	psect	intcode_body,global,reloc=2,class=CODE,delta=1
    38                           	psect	text22,global,reloc=2,class=CODE,delta=1
    39                           	psect	intsave_regs,global,class=BIGRAM,space=1,delta=1
    40                           	psect	param0,global,class=BANK0,space=1,delta=1
    41                           	psect	temp,global,ovrld,common,class=COMRAM,space=1,delta=1
    42  0000                     
    43                           	psect	idataCOMRAM
    44  002AB8                     __pidataCOMRAM:
    45                           	opt stack 0
    46                           
    47                           ;initializer for _limiteDx
    48  002AB8  0078               	dw	120
    49                           
    50                           	psect	idataBANK0
    51  002ABA                     __pidataBANK0:
    52                           	opt stack 0
    53                           
    54                           ;initializer for _currentSteering
    55  002ABA  B4                 	db	180
    56                           
    57                           ;initializer for _delay_quartz_frequency_value
    58  002ABB  14                 	db	20
    59  0000                     _RXB1CON	set	3920
    60  0000                     _RXB1CONbits	set	3920
    61  0000                     _RXB1D0	set	3926
    62  0000                     _RXB1D1	set	3927
    63  0000                     _RXB1D2	set	3928
    64  0000                     _RXB1D3	set	3929
    65  0000                     _RXB1D4	set	3930
    66  0000                     _RXB1D5	set	3931
    67  0000                     _RXB1D6	set	3932
    68  0000                     _RXB1D7	set	3933
    69  0000                     _RXB1DLC	set	3925
    70  0000                     _RXB1DLCbits	set	3925
    71  0000                     _RXB1EIDH	set	3923
    72  0000                     _RXB1EIDL	set	3924
    73  0000                     _RXB1SIDH	set	3921
    74  0000                     _RXB1SIDL	set	3922
    75  0000                     _RXB1SIDLbits	set	3922
    76  0000                     _RXF0EIDH	set	3842
    77  0000                     _RXF0EIDL	set	3843
    78  0000                     _RXF0SIDH	set	3840
    79  0000                     _RXF0SIDL	set	3841
    80  0000                     _RXF0SIDLbits	set	3841
    81  0000                     _RXF1EIDH	set	3846
    82  0000                     _RXF1EIDL	set	3847
    83  0000                     _RXF1SIDH	set	3844
    84  0000                     _RXF1SIDL	set	3845
    85  0000                     _RXF1SIDLbits	set	3845
    86  0000                     _RXF2EIDH	set	3850
    87  0000                     _RXF2EIDL	set	3851
    88  0000                     _RXF2SIDH	set	3848
    89  0000                     _RXF2SIDL	set	3849
    90  0000                     _RXF2SIDLbits	set	3849
    91  0000                     _RXF3EIDH	set	3854
    92  0000                     _RXF3EIDL	set	3855
    93  0000                     _RXF3SIDH	set	3852
    94  0000                     _RXF3SIDL	set	3853
    95  0000                     _RXF3SIDLbits	set	3853
    96  0000                     _RXF4EIDH	set	3858
    97  0000                     _RXF4EIDL	set	3859
    98  0000                     _RXF4SIDH	set	3856
    99  0000                     _RXF4SIDL	set	3857
   100  0000                     _RXF4SIDLbits	set	3857
   101  0000                     _RXF5EIDH	set	3862
   102  0000                     _RXF5EIDL	set	3863
   103  0000                     _RXF5SIDH	set	3860
   104  0000                     _RXF5SIDL	set	3861
   105  0000                     _RXF5SIDLbits	set	3861
   106  0000                     _RXM0EIDH	set	3866
   107  0000                     _RXM0EIDL	set	3867
   108  0000                     _RXM0SIDH	set	3864
   109  0000                     _RXM0SIDL	set	3865
   110  0000                     _RXM0SIDLbits	set	3865
   111  0000                     _RXM1EIDH	set	3870
   112  0000                     _RXM1EIDL	set	3871
   113  0000                     _RXM1SIDH	set	3868
   114  0000                     _RXM1SIDL	set	3869
   115  0000                     _RXM1SIDLbits	set	3869
   116  0000                     _TXB0CONbits	set	3904
   117  0000                     _TXB0D0	set	3910
   118  0000                     _TXB0D1	set	3911
   119  0000                     _TXB0D2	set	3912
   120  0000                     _TXB0D3	set	3913
   121  0000                     _TXB0D4	set	3914
   122  0000                     _TXB0D5	set	3915
   123  0000                     _TXB0D6	set	3916
   124  0000                     _TXB0D7	set	3917
   125  0000                     _TXB0DLC	set	3909
   126  0000                     _TXB0DLCbits	set	3909
   127  0000                     _TXB0EIDH	set	3907
   128  0000                     _TXB0EIDL	set	3908
   129  0000                     _TXB0SIDH	set	3905
   130  0000                     _TXB0SIDL	set	3906
   131  0000                     _TXB0SIDLbits	set	3906
   132  0000                     _TXB1CONbits	set	3888
   133  0000                     _TXB1D0	set	3894
   134  0000                     _TXB1D1	set	3895
   135  0000                     _TXB1D2	set	3896
   136  0000                     _TXB1D3	set	3897
   137  0000                     _TXB1D4	set	3898
   138  0000                     _TXB1D5	set	3899
   139  0000                     _TXB1D6	set	3900
   140  0000                     _TXB1D7	set	3901
   141  0000                     _TXB1DLC	set	3893
   142  0000                     _TXB1DLCbits	set	3893
   143  0000                     _TXB1EIDH	set	3891
   144  0000                     _TXB1EIDL	set	3892
   145  0000                     _TXB1SIDH	set	3889
   146  0000                     _TXB1SIDL	set	3890
   147  0000                     _TXB1SIDLbits	set	3890
   148  0000                     _TXB2CONbits	set	3872
   149  0000                     _TXB2D0	set	3878
   150  0000                     _TXB2D1	set	3879
   151  0000                     _TXB2D2	set	3880
   152  0000                     _TXB2D3	set	3881
   153  0000                     _TXB2D4	set	3882
   154  0000                     _TXB2D5	set	3883
   155  0000                     _TXB2D6	set	3884
   156  0000                     _TXB2D7	set	3885
   157  0000                     _TXB2DLC	set	3877
   158  0000                     _TXB2DLCbits	set	3877
   159  0000                     _TXB2EIDH	set	3875
   160  0000                     _TXB2EIDL	set	3876
   161  0000                     _TXB2SIDH	set	3873
   162  0000                     _TXB2SIDL	set	3874
   163  0000                     _TXB2SIDLbits	set	3874
   164  0000                     _BRGCON1	set	3952
   165  0000                     _BRGCON2	set	3953
   166  0000                     _BRGCON2bits	set	3953
   167  0000                     _BRGCON3	set	3954
   168  0000                     _BRGCON3bits	set	3954
   169  0000                     _CANCON	set	3951
   170  0000                     _CANCONbits	set	3951
   171  0000                     _CANSTAT	set	3950
   172  0000                     _COMSTATbits	set	3956
   173  0000                     _INTCON2bits	set	4081
   174  0000                     _INTCONbits	set	4082
   175  0000                     _IPR3bits	set	4005
   176  0000                     _LATA	set	3977
   177  0000                     _LATB	set	3978
   178  0000                     _LATC	set	3979
   179  0000                     _LATD	set	3980
   180  0000                     _LATE	set	3981
   181  0000                     _PIE3bits	set	4003
   182  0000                     _PIR3bits	set	4004
   183  0000                     _PORTAbits	set	3968
   184  0000                     _PORTCbits	set	3970
   185  0000                     _RCONbits	set	4048
   186  0000                     _RXB0CON	set	3936
   187  0000                     _RXB0CONbits	set	3936
   188  0000                     _RXB0D0	set	3942
   189  0000                     _RXB0D1	set	3943
   190  0000                     _RXB0D2	set	3944
   191  0000                     _RXB0D3	set	3945
   192  0000                     _RXB0D4	set	3946
   193  0000                     _RXB0D5	set	3947
   194  0000                     _RXB0D6	set	3948
   195  0000                     _RXB0D7	set	3949
   196  0000                     _RXB0DLC	set	3941
   197  0000                     _RXB0DLCbits	set	3941
   198  0000                     _RXB0EIDH	set	3939
   199  0000                     _RXB0EIDL	set	3940
   200  0000                     _RXB0SIDH	set	3937
   201  0000                     _RXB0SIDL	set	3938
   202  0000                     _RXB0SIDLbits	set	3938
   203  0000                     _RXERRCNT	set	3957
   204  0000                     _T0CON	set	4053
   205  0000                     _T0CONbits	set	4053
   206  0000                     _TMR0H	set	4055
   207  0000                     _TMR0L	set	4054
   208  0000                     _TRISA	set	3986
   209  0000                     _TRISB	set	3987
   210  0000                     _TRISC	set	3988
   211  0000                     _TRISD	set	3989
   212  0000                     _TRISE	set	3990
   213  0000                     _TXERRCNT	set	3958
   214                           
   215                           ; #config settings
   216  0000                     
   217                           	psect	cinit
   218  0028C0                     __pcinit:
   219                           	opt stack 0
   220  0028C0                     start_initialization:
   221                           	opt stack 0
   222  0028C0                     __initialization:
   223                           	opt stack 0
   224                           
   225                           ; Clear objects allocated to BANK0 (26 bytes)
   226  0028C0  EE00  F091         	lfsr	0,__pbssBANK0
   227  0028C4  0E1A               	movlw	26
   228  0028C6                     clear_0:
   229  0028C6  6AEE               	clrf	postinc0,c
   230  0028C8  06E8               	decf	wreg,f,c
   231  0028CA  E1FD               	bnz	clear_0
   232                           
   233                           ; Clear objects allocated to BITCOMRAM (1 bytes)
   234  0028CC  6A43               	clrf	(__pbitbssCOMRAM/(0+8))& (0+255),c
   235                           
   236                           ; Clear objects allocated to COMRAM (32 bytes)
   237  0028CE  EE00  F023         	lfsr	0,__pbssCOMRAM
   238  0028D2  0E20               	movlw	32
   239  0028D4                     clear_1:
   240  0028D4  6AEE               	clrf	postinc0,c
   241  0028D6  06E8               	decf	wreg,f,c
   242  0028D8  E1FD               	bnz	clear_1
   243                           
   244                           ; Initialize objects allocated to BANK0 (2 bytes)
   245                           ; load TBLPTR registers with __pidataBANK0
   246  0028DA  0EBA               	movlw	low __pidataBANK0
   247  0028DC  6EF6               	movwf	tblptrl,c
   248  0028DE  0E2A               	movlw	high __pidataBANK0
   249  0028E0  6EF7               	movwf	tblptrh,c
   250  0028E2  0E00               	movlw	low (__pidataBANK0 shr (0+16))
   251  0028E4  6EF8               	movwf	tblptru,c
   252  0028E6  0009               	tblrd		*+	;fetch initializer
   253  0028E8  CFF5 F0AB          	movff	tablat,__pdataBANK0
   254  0028EC  0009               	tblrd		*+	;fetch initializer
   255  0028EE  CFF5 F0AC          	movff	tablat,__pdataBANK0+1
   256                           
   257                           ; Initialize objects allocated to COMRAM (2 bytes)
   258                           ; load TBLPTR registers with __pidataCOMRAM
   259  0028F2  0EB8               	movlw	low __pidataCOMRAM
   260  0028F4  6EF6               	movwf	tblptrl,c
   261  0028F6  0E2A               	movlw	high __pidataCOMRAM
   262  0028F8  6EF7               	movwf	tblptrh,c
   263  0028FA  0E00               	movlw	low (__pidataCOMRAM shr (0+16))
   264  0028FC  6EF8               	movwf	tblptru,c
   265  0028FE  0009               	tblrd		*+	;fetch initializer
   266  002900  CFF5 F044          	movff	tablat,__pdataCOMRAM
   267  002904  0009               	tblrd		*+	;fetch initializer
   268  002906  CFF5 F045          	movff	tablat,__pdataCOMRAM+1
   269  00290A                     end_of_initialization:
   270                           	opt stack 0
   271  00290A                     __end_of__initialization:
   272                           	opt stack 0
   273  00290A  9046               	bcf	int$flags,0,c	;clear compiler interrupt flag (level 1)
   274  00290C  9246               	bcf	int$flags,1,c	;clear compiler interrupt flag (level 2)
   275  00290E  0E00               	movlw	low (__Lmediumconst shr (0+16))
   276  002910  6EF8               	movwf	tblptru,c
   277  002912  0100               	movlb	0
   278  002914  EF8C  F012         	goto	_main	;jump to C main() function
   279                           tblptru	equ	0xFF8
   280                           tblptrh	equ	0xFF7
   281                           tblptrl	equ	0xFF6
   282                           tablat	equ	0xFF5
   283                           postinc0	equ	0xFEE
   284                           wreg	equ	0xFE8
   285                           
   286                           	psect	bitbssCOMRAM
   287  000218                     __pbitbssCOMRAM:
   288                           	opt stack 0
   289  000218                     _noChange:
   290                           	opt stack 0
   291  000218                     	ds	1
   292  000219                     _remote_frame:
   293                           	opt stack 0
   294  000219                     	ds	1
   295                           tblptru	equ	0xFF8
   296                           tblptrh	equ	0xFF7
   297                           tblptrl	equ	0xFF6
   298                           tablat	equ	0xFF5
   299                           postinc0	equ	0xFEE
   300                           wreg	equ	0xFE8
   301                           
   302                           	psect	bssCOMRAM
   303  000023                     __pbssCOMRAM:
   304                           	opt stack 0
   305  000023                     _id:
   306                           	opt stack 0
   307  000023                     	ds	4
   308  000027                     _Toff:
   309                           	opt stack 0
   310  000027                     	ds	2
   311  000029                     _Ton:
   312                           	opt stack 0
   313  000029                     	ds	2
   314  00002B                     _theorySteering:
   315                           	opt stack 0
   316  00002B                     	ds	1
   317  00002C                     _msg:
   318                           	opt stack 0
   319  00002C                     	ds	15
   320  00003B                     _data_array:
   321                           	opt stack 0
   322  00003B                     	ds	8
   323                           tblptru	equ	0xFF8
   324                           tblptrh	equ	0xFF7
   325                           tblptrl	equ	0xFF6
   326                           tablat	equ	0xFF5
   327                           postinc0	equ	0xFEE
   328                           wreg	equ	0xFE8
   329                           
   330                           	psect	dataCOMRAM
   331  000044                     __pdataCOMRAM:
   332                           	opt stack 0
   333  000044                     _limiteDx:
   334                           	opt stack 0
   335  000044                     	ds	2
   336                           tblptru	equ	0xFF8
   337                           tblptrh	equ	0xFF7
   338                           tblptrl	equ	0xFF6
   339                           tablat	equ	0xFF5
   340                           postinc0	equ	0xFEE
   341                           wreg	equ	0xFE8
   342                           
   343                           	psect	bssBANK0
   344  000091                     __pbssBANK0:
   345                           	opt stack 0
   346  000091                     _counter_array:
   347                           	opt stack 0
   348  000091                     	ds	8
   349  000099                     _currentSteering_array:
   350                           	opt stack 0
   351  000099                     	ds	8
   352  0000A1                     _duty_cycle:
   353                           	opt stack 0
   354  0000A1                     	ds	4
   355  0000A5                     _timer:
   356                           	opt stack 0
   357  0000A5                     	ds	4
   358  0000A9                     _clock_counter_reference:
   359                           	opt stack 0
   360  0000A9                     	ds	2
   361                           tblptru	equ	0xFF8
   362                           tblptrh	equ	0xFF7
   363                           tblptrl	equ	0xFF6
   364                           tablat	equ	0xFF5
   365                           postinc0	equ	0xFEE
   366                           wreg	equ	0xFE8
   367                           
   368                           	psect	dataBANK0
   369  0000AB                     __pdataBANK0:
   370                           	opt stack 0
   371  0000AB                     _currentSteering:
   372                           	opt stack 0
   373  0000AB                     	ds	1
   374  0000AC                     _delay_quartz_frequency_value:
   375                           	opt stack 0
   376  0000AC                     	ds	1
   377                           tblptru	equ	0xFF8
   378                           tblptrh	equ	0xFF7
   379                           tblptrl	equ	0xFF6
   380                           tablat	equ	0xFF5
   381                           postinc0	equ	0xFEE
   382                           wreg	equ	0xFE8
   383                           
   384                           	psect	cstackBANK0
   385  000060                     __pcstackBANK0:
   386                           	opt stack 0
   387  000060                     WriteTimer0@timer0:
   388                           	opt stack 0
   389                           
   390                           ; 2 bytes @ 0x0
   391  000060                     	ds	2
   392  000062                     WriteTimer0@timer:
   393                           	opt stack 0
   394                           
   395                           ; 2 bytes @ 0x2
   396  000062                     	ds	2
   397  000064                     ??_ISR_alta:
   398                           
   399                           ; 0 bytes @ 0x4
   400  000064                     	ds	15
   401  000073                     ?___wmul:
   402                           	opt stack 0
   403  000073                     ?___lmul:
   404                           	opt stack 0
   405  000073                     CANOperationMode@mode:
   406                           	opt stack 0
   407  000073                     _CANisTxReady$2800:
   408                           	opt stack 0
   409  000073                     ___wmul@multiplier:
   410                           	opt stack 0
   411  000073                     CANsendMessage@identifier:
   412                           	opt stack 0
   413  000073                     CANSetMask@mask:
   414                           	opt stack 0
   415  000073                     CANSetFilter@filter:
   416                           	opt stack 0
   417  000073                     ___lmul@multiplier:
   418                           	opt stack 0
   419                           
   420                           ; 4 bytes @ 0x13
   421  000073                     	ds	2
   422  000075                     ___wmul@multiplicand:
   423                           	opt stack 0
   424                           
   425                           ; 2 bytes @ 0x15
   426  000075                     	ds	2
   427  000077                     CANSetMask@type:
   428                           	opt stack 0
   429  000077                     CANSetFilter@type:
   430                           	opt stack 0
   431  000077                     CANsendMessage@data:
   432                           	opt stack 0
   433  000077                     ___wmul@product:
   434                           	opt stack 0
   435  000077                     ___lmul@multiplicand:
   436                           	opt stack 0
   437                           
   438                           ; 4 bytes @ 0x17
   439  000077                     	ds	1
   440  000078                     ??_CANSetMask:
   441  000078                     ??_CANSetFilter:
   442                           
   443                           ; 0 bytes @ 0x18
   444  000078                     	ds	1
   445  000079                     CANsendMessage@dataLength:
   446                           	opt stack 0
   447  000079                     delay_ms@value_ms:
   448                           	opt stack 0
   449                           
   450                           ; 2 bytes @ 0x19
   451  000079                     	ds	1
   452  00007A                     CANsendMessage@flags:
   453                           	opt stack 0
   454                           
   455                           ; 1 bytes @ 0x1A
   456  00007A                     	ds	1
   457  00007B                     ??_CANsendMessage:
   458  00007B                     ___lmul@product:
   459                           	opt stack 0
   460                           
   461                           ; 4 bytes @ 0x1B
   462  00007B                     	ds	1
   463  00007C                     CANSetMask@numBuffer:
   464                           	opt stack 0
   465  00007C                     CANSetFilter@numBuffer:
   466                           	opt stack 0
   467                           
   468                           ; 1 bytes @ 0x1C
   469  00007C                     	ds	1
   470  00007D                     CANSetMask@tamp:
   471                           	opt stack 0
   472  00007D                     CANSetFilter@tamp:
   473                           	opt stack 0
   474                           
   475                           ; 4 bytes @ 0x1D
   476  00007D                     	ds	2
   477  00007F                     ?___lldiv:
   478                           	opt stack 0
   479  00007F                     CANsendMessage@tamp:
   480                           	opt stack 0
   481  00007F                     ___lldiv@dividend:
   482                           	opt stack 0
   483                           
   484                           ; 4 bytes @ 0x1F
   485  00007F                     	ds	2
   486  000081                     CANInitialize@phaseSeg1:
   487                           	opt stack 0
   488                           
   489                           ; 1 bytes @ 0x21
   490  000081                     	ds	1
   491  000082                     CANInitialize@phaseSeg2:
   492                           	opt stack 0
   493                           
   494                           ; 1 bytes @ 0x22
   495  000082                     	ds	1
   496  000083                     CANInitialize@SJW:
   497                           	opt stack 0
   498  000083                     ___lldiv@divisor:
   499                           	opt stack 0
   500                           
   501                           ; 4 bytes @ 0x23
   502  000083                     	ds	1
   503  000084                     CANInitialize@BRP:
   504                           	opt stack 0
   505                           
   506                           ; 1 bytes @ 0x24
   507  000084                     	ds	1
   508  000085                     CANInitialize@flags:
   509                           	opt stack 0
   510                           
   511                           ; 1 bytes @ 0x25
   512  000085                     	ds	1
   513  000086                     ??_CANInitialize:
   514                           
   515                           ; 0 bytes @ 0x26
   516  000086                     	ds	1
   517  000087                     ___lldiv@quotient:
   518                           	opt stack 0
   519                           
   520                           ; 4 bytes @ 0x27
   521  000087                     	ds	3
   522  00008A                     CANInitialize@propSeg:
   523                           	opt stack 0
   524                           
   525                           ; 1 bytes @ 0x2A
   526  00008A                     	ds	1
   527  00008B                     CANInitialize@FilterConfig1:
   528                           	opt stack 0
   529  00008B                     ___lldiv@counter:
   530                           	opt stack 0
   531                           
   532                           ; 1 bytes @ 0x2B
   533  00008B                     	ds	1
   534  00008C                     CANInitialize@FilterConfig2:
   535                           	opt stack 0
   536                           
   537                           ; 1 bytes @ 0x2C
   538  00008C                     	ds	1
   539  00008D                     ??_main:
   540                           
   541                           ; 0 bytes @ 0x2D
   542  00008D                     	ds	4
   543                           tblptru	equ	0xFF8
   544                           tblptrh	equ	0xFF7
   545                           tblptrl	equ	0xFF6
   546                           tablat	equ	0xFF5
   547                           postinc0	equ	0xFEE
   548                           wreg	equ	0xFE8
   549                           
   550                           	psect	cstackCOMRAM
   551  000001                     __pcstackCOMRAM:
   552                           	opt stack 0
   553  000001                     ?i1___wmul:
   554                           	opt stack 0
   555  000001                     _CANisRxReady$2802:
   556                           	opt stack 0
   557  000001                     CANreceiveMessage@msg:
   558                           	opt stack 0
   559  000001                     i1___wmul@multiplier:
   560                           	opt stack 0
   561  000001                     i1CANsendMessage@identifier:
   562                           	opt stack 0
   563                           
   564                           ; 4 bytes @ 0x0
   565  000001                     	ds	2
   566  000003                     ??_CANreceiveMessage:
   567  000003                     i1___wmul@multiplicand:
   568                           	opt stack 0
   569                           
   570                           ; 2 bytes @ 0x2
   571  000003                     	ds	2
   572  000005                     i1CANsendMessage@data:
   573                           	opt stack 0
   574  000005                     i1___wmul@product:
   575                           	opt stack 0
   576                           
   577                           ; 2 bytes @ 0x4
   578  000005                     	ds	2
   579  000007                     ?___lwdiv:
   580                           	opt stack 0
   581  000007                     i1CANsendMessage@dataLength:
   582                           	opt stack 0
   583  000007                     ___lwdiv@dividend:
   584                           	opt stack 0
   585                           
   586                           ; 2 bytes @ 0x6
   587  000007                     	ds	1
   588  000008                     i1CANsendMessage@flags:
   589                           	opt stack 0
   590                           
   591                           ; 1 bytes @ 0x7
   592  000008                     	ds	1
   593  000009                     ??i1_CANsendMessage:
   594  000009                     ___lwdiv@divisor:
   595                           	opt stack 0
   596                           
   597                           ; 2 bytes @ 0x8
   598  000009                     	ds	2
   599  00000B                     CANreceiveMessage@error:
   600                           	opt stack 0
   601  00000B                     ___lwdiv@quotient:
   602                           	opt stack 0
   603                           
   604                           ; 2 bytes @ 0xA
   605  00000B                     	ds	1
   606  00000C                     CANreceiveMessage@tamp:
   607                           	opt stack 0
   608                           
   609                           ; 1 bytes @ 0xB
   610  00000C                     	ds	1
   611  00000D                     ___lwdiv@counter:
   612                           	opt stack 0
   613  00000D                     i1CANsendMessage@tamp:
   614                           	opt stack 0
   615                           
   616                           ; 4 bytes @ 0xC
   617  00000D                     	ds	4
   618  000011                     ??_ISR_bassa:
   619                           
   620                           ; 0 bytes @ 0x10
   621  000011                     	ds	18
   622                           tblptru	equ	0xFF8
   623                           tblptrh	equ	0xFF7
   624                           tblptrl	equ	0xFF6
   625                           tablat	equ	0xFF5
   626                           postinc0	equ	0xFEE
   627                           wreg	equ	0xFE8
   628                           
   629 ;;
   630 ;;Main: autosize = 0, tempsize = 4, incstack = 0, save=0
   631 ;;
   632 ;; *************** function _main *****************
   633 ;; Defined at:
   634 ;;		line 116 in file "sterzo.c"
   635 ;; Parameters:    Size  Location     Type
   636 ;;		None
   637 ;; Auto vars:     Size  Location     Type
   638 ;;		None
   639 ;; Return value:  Size  Location     Type
   640 ;;                  2  599[None  ] int 
   641 ;; Registers used:
   642 ;;		wreg, fsr2l, fsr2h, status,2, status,0, prodl, prodh, cstack
   643 ;; Tracked objects:
   644 ;;		On entry : 0/0
   645 ;;		On exit  : 0/0
   646 ;;		Unchanged: 0/0
   647 ;; Data sizes:     COMRAM   BANK0   BANK1   BANK2
   648 ;;      Params:         0       0       0       0
   649 ;;      Locals:         0       0       0       0
   650 ;;      Temps:          0       4       0       0
   651 ;;      Totals:         0       4       0       0
   652 ;;Total ram usage:        4 bytes
   653 ;; Hardware stack levels required when called:    7
   654 ;; This function calls:
   655 ;;		_CANisRXwarningON
   656 ;;		_CANisTXwarningON
   657 ;;		___lldiv
   658 ;;		___lmul
   659 ;;		_configurazione_iniziale
   660 ;;		_delay_ms
   661 ;;		_send_data
   662 ;; This function is called by:
   663 ;;		Startup code after reset
   664 ;; This function uses a non-reentrant model
   665 ;;
   666                           
   667                           	psect	text0
   668  002518                     __ptext0:
   669                           	opt stack 0
   670  002518                     _main:
   671                           	opt stack 24
   672                           
   673                           ;sterzo.c: 117: configurazione_iniziale();
   674                           
   675                           ;incstack = 0
   676  002518  EC29  F014         	call	_configurazione_iniziale	;wreg free
   677                           
   678                           ;sterzo.c: 118: PORTAbits.RA1 = 1;
   679  00251C  8280               	bsf	3968,1,c	;volatile
   680                           
   681                           ;sterzo.c: 119: PORTCbits.RC1 = 1;
   682  00251E  8282               	bsf	3970,1,c	;volatile
   683                           
   684                           ;sterzo.c: 120: delay_ms(500);
   685  002520  0E01               	movlw	1
   686  002522  0100               	movlb	0	; () banked
   687  002524  6F7A               	movwf	(delay_ms@value_ms+1)& (0+255),b
   688  002526  0EF4               	movlw	244
   689  002528  6F79               	movwf	delay_ms@value_ms& (0+255),b
   690  00252A  ECD4  F014         	call	_delay_ms	;wreg free
   691                           
   692                           ;sterzo.c: 121: PORTAbits.RA1 = 0;
   693  00252E  9280               	bcf	3968,1,c	;volatile
   694                           
   695                           ;sterzo.c: 122: PORTCbits.RC1 = 0;
   696  002530  9282               	bcf	3970,1,c	;volatile
   697                           
   698                           ;sterzo.c: 123: delay_ms(100);
   699  002532  0E00               	movlw	0
   700  002534  0100               	movlb	0	; () banked
   701  002536  6F7A               	movwf	(delay_ms@value_ms+1)& (0+255),b
   702  002538  0E64               	movlw	100
   703  00253A  6F79               	movwf	delay_ms@value_ms& (0+255),b
   704  00253C  ECD4  F014         	call	_delay_ms	;wreg free
   705  002540                     l3899:
   706                           
   707                           ;sterzo.c: 126: delay_ms(100);
   708  002540  0E00               	movlw	0
   709  002542  0100               	movlb	0	; () banked
   710  002544  6F7A               	movwf	(delay_ms@value_ms+1)& (0+255),b
   711  002546  0E64               	movlw	100
   712  002548  6F79               	movwf	delay_ms@value_ms& (0+255),b
   713  00254A  ECD4  F014         	call	_delay_ms	;wreg free
   714                           
   715                           ;sterzo.c: 128: duty_cycle = currentSteering;
   716  00254E  0100               	movlb	0	; () banked
   717  002550  51AB               	movf	_currentSteering& (0+255),w,b
   718  002552  0100               	movlb	0	; () banked
   719  002554  6FA1               	movwf	_duty_cycle& (0+255),b
   720  002556  6BA2               	clrf	(_duty_cycle+1)& (0+255),b
   721  002558  6BA3               	clrf	(_duty_cycle+2)& (0+255),b
   722  00255A  6BA4               	clrf	(_duty_cycle+3)& (0+255),b
   723                           
   724                           ; BSR set to: 0
   725                           ;sterzo.c: 129: if (PORTCbits.RC0 == 0) {
   726  00255C  B082               	btfsc	3970,0,c	;volatile
   727  00255E  D7F0               	goto	l3899
   728                           
   729                           ; BSR set to: 0
   730                           ;sterzo.c: 130: timer = (((duty_cycle * 700) / 90) + 800) *2;
   731  002560  C0A1  F073         	movff	_duty_cycle,___lmul@multiplier
   732  002564  C0A2  F074         	movff	_duty_cycle+1,___lmul@multiplier+1
   733  002568  C0A3  F075         	movff	_duty_cycle+2,___lmul@multiplier+2
   734  00256C  C0A4  F076         	movff	_duty_cycle+3,___lmul@multiplier+3
   735  002570  0EBC               	movlw	188
   736  002572  0100               	movlb	0	; () banked
   737  002574  6F77               	movwf	___lmul@multiplicand& (0+255),b
   738  002576  0E02               	movlw	2
   739  002578  6F78               	movwf	(___lmul@multiplicand+1)& (0+255),b
   740  00257A  0E00               	movlw	0
   741  00257C  6F79               	movwf	(___lmul@multiplicand+2)& (0+255),b
   742  00257E  0E00               	movlw	0
   743  002580  6F7A               	movwf	(___lmul@multiplicand+3)& (0+255),b
   744  002582  ECEE  F013         	call	___lmul	;wreg free
   745  002586  C073  F07F         	movff	?___lmul,___lldiv@dividend
   746  00258A  C074  F080         	movff	?___lmul+1,___lldiv@dividend+1
   747  00258E  C075  F081         	movff	?___lmul+2,___lldiv@dividend+2
   748  002592  C076  F082         	movff	?___lmul+3,___lldiv@dividend+3
   749  002596  0E5A               	movlw	90
   750  002598  0100               	movlb	0	; () banked
   751  00259A  6F83               	movwf	___lldiv@divisor& (0+255),b
   752  00259C  0E00               	movlw	0
   753  00259E  6F84               	movwf	(___lldiv@divisor+1)& (0+255),b
   754  0025A0  0E00               	movlw	0
   755  0025A2  6F85               	movwf	(___lldiv@divisor+2)& (0+255),b
   756  0025A4  0E00               	movlw	0
   757  0025A6  6F86               	movwf	(___lldiv@divisor+3)& (0+255),b
   758  0025A8  EC35  F013         	call	___lldiv	;wreg free
   759  0025AC  90D8               	bcf	status,0,c
   760  0025AE  0100               	movlb	0	; () banked
   761  0025B0  357F               	rlcf	?___lldiv& (0+255),w,b
   762  0025B2  0100               	movlb	0	; () banked
   763  0025B4  6F8D               	movwf	??_main& (0+255),b
   764  0025B6  0100               	movlb	0	; () banked
   765  0025B8  3580               	rlcf	(?___lldiv+1)& (0+255),w,b
   766  0025BA  0100               	movlb	0	; () banked
   767  0025BC  6F8E               	movwf	(??_main+1)& (0+255),b
   768  0025BE  0100               	movlb	0	; () banked
   769  0025C0  3581               	rlcf	(?___lldiv+2)& (0+255),w,b
   770  0025C2  0100               	movlb	0	; () banked
   771  0025C4  6F8F               	movwf	(??_main+2)& (0+255),b
   772  0025C6  0100               	movlb	0	; () banked
   773  0025C8  3582               	rlcf	(?___lldiv+3)& (0+255),w,b
   774  0025CA  0100               	movlb	0	; () banked
   775  0025CC  6F90               	movwf	(??_main+3)& (0+255),b
   776  0025CE  0E40               	movlw	64
   777  0025D0  0100               	movlb	0	; () banked
   778  0025D2  258D               	addwf	??_main& (0+255),w,b
   779  0025D4  0100               	movlb	0	; () banked
   780  0025D6  6FA5               	movwf	_timer& (0+255),b
   781  0025D8  0E06               	movlw	6
   782  0025DA  0100               	movlb	0	; () banked
   783  0025DC  218E               	addwfc	(??_main+1)& (0+255),w,b
   784  0025DE  0100               	movlb	0	; () banked
   785  0025E0  6FA6               	movwf	(_timer+1)& (0+255),b
   786  0025E2  0E00               	movlw	0
   787  0025E4  0100               	movlb	0	; () banked
   788  0025E6  218F               	addwfc	(??_main+2)& (0+255),w,b
   789  0025E8  0100               	movlb	0	; () banked
   790  0025EA  6FA7               	movwf	(_timer+2)& (0+255),b
   791  0025EC  0E00               	movlw	0
   792  0025EE  0100               	movlb	0	; () banked
   793  0025F0  2190               	addwfc	(??_main+3)& (0+255),w,b
   794  0025F2  0100               	movlb	0	; () banked
   795  0025F4  6FA8               	movwf	(_timer+3)& (0+255),b
   796                           
   797                           ; BSR set to: 0
   798                           ;sterzo.c: 131: Ton = 65536 - timer;
   799  0025F6  C0A5  F08D         	movff	_timer,??_main
   800  0025FA  C0A6  F08E         	movff	_timer+1,??_main+1
   801  0025FE  0100               	movlb	0	; () banked
   802  002600  1F8D               	comf	??_main& (0+255),f,b
   803  002602  1F8E               	comf	(??_main+1)& (0+255),f,b
   804  002604  4B8D               	infsnz	??_main& (0+255),f,b
   805  002606  2B8E               	incf	(??_main+1)& (0+255),f,b
   806  002608  C08D  F029         	movff	??_main,_Ton
   807  00260C  C08E  F02A         	movff	??_main+1,_Ton+1
   808                           
   809                           ; BSR set to: 0
   810                           ;sterzo.c: 132: Toff = 20000 - (timer / 2);
   811  002610  C0A5  F08D         	movff	_timer,??_main
   812  002614  C0A6  F08E         	movff	_timer+1,??_main+1
   813  002618  C0A7  F08F         	movff	_timer+2,??_main+2
   814  00261C  C0A8  F090         	movff	_timer+3,??_main+3
   815  002620  0100               	movlb	0	; () banked
   816  002622  90D8               	bcf	status,0,c
   817  002624  3390               	rrcf	(??_main+3)& (0+255),f,b
   818  002626  338F               	rrcf	(??_main+2)& (0+255),f,b
   819  002628  338E               	rrcf	(??_main+1)& (0+255),f,b
   820  00262A  338D               	rrcf	??_main& (0+255),f,b
   821  00262C  0100               	movlb	0	; () banked
   822  00262E  1F8D               	comf	??_main& (0+255),f,b
   823  002630  1F8E               	comf	(??_main+1)& (0+255),f,b
   824  002632  4B8D               	infsnz	??_main& (0+255),f,b
   825  002634  2B8E               	incf	(??_main+1)& (0+255),f,b
   826  002636  0E20               	movlw	32
   827  002638  0100               	movlb	0	; () banked
   828  00263A  258D               	addwf	??_main& (0+255),w,b
   829  00263C  6E27               	movwf	_Toff,c
   830  00263E  0E4E               	movlw	78
   831  002640  0100               	movlb	0	; () banked
   832  002642  218E               	addwfc	(??_main+1)& (0+255),w,b
   833  002644  6E28               	movwf	_Toff+1,c
   834                           
   835                           ; BSR set to: 0
   836                           ;sterzo.c: 133: Toff = (65536 - (Toff * 2));
   837  002646  C027  F08D         	movff	_Toff,??_main
   838  00264A  C028  F08E         	movff	_Toff+1,??_main+1
   839  00264E  90D8               	bcf	status,0,c
   840  002650  0100               	movlb	0	; () banked
   841  002652  378D               	rlcf	??_main& (0+255),f,b
   842  002654  378E               	rlcf	(??_main+1)& (0+255),f,b
   843  002656  0100               	movlb	0	; () banked
   844  002658  1F8D               	comf	??_main& (0+255),f,b
   845  00265A  1F8E               	comf	(??_main+1)& (0+255),f,b
   846  00265C  4B8D               	infsnz	??_main& (0+255),f,b
   847  00265E  2B8E               	incf	(??_main+1)& (0+255),f,b
   848  002660  C08D  F027         	movff	??_main,_Toff
   849  002664  C08E  F028         	movff	??_main+1,_Toff+1
   850                           
   851                           ; BSR set to: 0
   852                           
   853                           ; BSR set to: 0
   854  002668  D76B               	goto	l3899
   855  00266A                     __end_of_main:
   856                           	opt stack 0
   857                           tblptru	equ	0xFF8
   858                           tblptrh	equ	0xFF7
   859                           tblptrl	equ	0xFF6
   860                           tablat	equ	0xFF5
   861                           postinc0	equ	0xFEE
   862                           wreg	equ	0xFE8
   863                           status	equ	0xFD8
   864                           
   865 ;; *************** function _send_data *****************
   866 ;; Defined at:
   867 ;;		line 148 in file "sterzo.c"
   868 ;; Parameters:    Size  Location     Type
   869 ;;		None
   870 ;; Auto vars:     Size  Location     Type
   871 ;;		None
   872 ;; Return value:  Size  Location     Type
   873 ;;		None               void
   874 ;; Registers used:
   875 ;;		wreg, fsr2l, fsr2h, status,2, status,0, cstack
   876 ;; Tracked objects:
   877 ;;		On entry : 0/0
   878 ;;		On exit  : 0/0
   879 ;;		Unchanged: 0/0
   880 ;; Data sizes:     COMRAM   BANK0   BANK1   BANK2
   881 ;;      Params:         0       0       0       0
   882 ;;      Locals:         0       0       0       0
   883 ;;      Temps:          0       0       0       0
   884 ;;      Totals:         0       0       0       0
   885 ;;Total ram usage:        0 bytes
   886 ;; Hardware stack levels used:    1
   887 ;; Hardware stack levels required when called:    5
   888 ;; This function calls:
   889 ;;		_CANisTxReady
   890 ;;		_CANsendMessage
   891 ;; This function is called by:
   892 ;;		_main
   893 ;; This function uses a non-reentrant model
   894 ;;
   895                           
   896                           	psect	text1
   897  00296A                     __ptext1:
   898                           	opt stack 0
   899  00296A                     _send_data:
   900                           	opt stack 25
   901                           
   902                           ;sterzo.c: 149: if (CANisTxReady()) {
   903                           
   904                           ;incstack = 0
   905  00296A  EC1F  F015         	call	_CANisTxReady	;wreg free
   906  00296E  0900               	iorlw	0
   907  002970  B4D8               	btfsc	status,2,c
   908  002972  0012               	return	
   909                           
   910                           ;sterzo.c: 150: if (remote_frame == 1) {
   911  002974  A243               	btfss	_remote_frame/(0+8),_remote_frame& (0+7),c
   912  002976  D016               	goto	l3533
   913                           
   914                           ;sterzo.c: 152: CANsendMessage(id, data_array, 8, CAN_CONFIG_STD_MSG &
   915                           ;sterzo.c: 153: CAN_NORMAL_TX_FRAME & CAN_TX_PRIORITY_0);
   916  002978  C023  F073         	movff	_id,CANsendMessage@identifier
   917  00297C  C024  F074         	movff	_id+1,CANsendMessage@identifier+1
   918  002980  C025  F075         	movff	_id+2,CANsendMessage@identifier+2
   919  002984  C026  F076         	movff	_id+3,CANsendMessage@identifier+3
   920  002988  0E3B               	movlw	low _data_array
   921  00298A  0100               	movlb	0	; () banked
   922  00298C  6F77               	movwf	CANsendMessage@data& (0+255),b
   923  00298E  0E00               	movlw	high _data_array
   924  002990  0100               	movlb	0	; () banked
   925  002992  6F78               	movwf	(CANsendMessage@data+1)& (0+255),b
   926  002994  0E08               	movlw	8
   927  002996  0100               	movlb	0	; () banked
   928  002998  6F79               	movwf	CANsendMessage@dataLength& (0+255),b
   929  00299A  0EBC               	movlw	188
   930  00299C  0100               	movlb	0	; () banked
   931  00299E  6F7A               	movwf	CANsendMessage@flags& (0+255),b
   932  0029A0  EC46  F006         	call	_CANsendMessage	;wreg free
   933  0029A4                     l3533:
   934                           
   935                           ;sterzo.c: 154: }
   936                           ;sterzo.c: 155: remote_frame = 0;
   937  0029A4  9243               	bcf	_remote_frame/(0+8),_remote_frame& (0+7),c
   938  0029A6  0012               	return	
   939  0029A8                     __end_of_send_data:
   940                           	opt stack 0
   941                           tblptru	equ	0xFF8
   942                           tblptrh	equ	0xFF7
   943                           tblptrl	equ	0xFF6
   944                           tablat	equ	0xFF5
   945                           postinc0	equ	0xFEE
   946                           wreg	equ	0xFE8
   947                           status	equ	0xFD8
   948                           
   949 ;; *************** function _CANsendMessage *****************
   950 ;; Defined at:
   951 ;;		line 294 in file "../../Scuola/Triennio/Tesina/can\CANlib.h"
   952 ;; Parameters:    Size  Location     Type
   953 ;;  identifier      4   19[BANK0 ] unsigned long 
   954 ;;  data            2   23[BANK0 ] PTR unsigned char 
   955 ;;		 -> data_array(8), 
   956 ;;  dataLength      1   25[BANK0 ] unsigned char 
   957 ;;  flags           1   26[BANK0 ] enum E16866
   958 ;; Auto vars:     Size  Location     Type
   959 ;;  tamp            4   31[BANK0 ] unsigned long 
   960 ;; Return value:  Size  Location     Type
   961 ;;		None               void
   962 ;; Registers used:
   963 ;;		wreg, fsr2l, fsr2h, status,2, status,0
   964 ;; Tracked objects:
   965 ;;		On entry : 0/0
   966 ;;		On exit  : 0/0
   967 ;;		Unchanged: 0/0
   968 ;; Data sizes:     COMRAM   BANK0   BANK1   BANK2
   969 ;;      Params:         0       8       0       0
   970 ;;      Locals:         0       4       0       0
   971 ;;      Temps:          0       4       0       0
   972 ;;      Totals:         0      16       0       0
   973 ;;Total ram usage:       16 bytes
   974 ;; Hardware stack levels used:    1
   975 ;; Hardware stack levels required when called:    4
   976 ;; This function calls:
   977 ;;		Nothing
   978 ;; This function is called by:
   979 ;;		_send_data
   980 ;; This function uses a non-reentrant model
   981 ;;
   982                           
   983                           	psect	text2
   984  000C8C                     __ptext2:
   985                           	opt stack 0
   986  000C8C                     _CANsendMessage:
   987                           	opt stack 25
   988                           
   989                           ;can\CANlib.h: 296: unsigned long tamp;
   990                           ;can\CANlib.h: 298: if (TXB0CONbits.TXREQ == 0)
   991                           
   992                           ;incstack = 0
   993  000C8C  010F               	movlb	15	; () banked
   994  000C8E  B740               	btfsc	64,3,b	;volatile
   995  000C90  D13F               	goto	l339
   996                           
   997                           ; BSR set to: 15
   998                           ;can\CANlib.h: 299: { TXB0DLC = dataLength;
   999  000C92  C079  FF45         	movff	CANsendMessage@dataLength,3909	;volatile
  1000                           
  1001                           ;can\CANlib.h: 300: if (0b01000000 & flags)
  1002  000C96  0100               	movlb	0	; () banked
  1003  000C98  AD7A               	btfss	CANsendMessage@flags& (0+255),6,b
  1004  000C9A  D003               	goto	l340
  1005                           
  1006                           ; BSR set to: 0
  1007                           ;can\CANlib.h: 301: TXB0DLCbits.TXRTR = 0x01;
  1008  000C9C  010F               	movlb	15	; () banked
  1009  000C9E  8D45               	bsf	69,6,b	;volatile
  1010  000CA0  D002               	goto	l341
  1011  000CA2                     l340:
  1012                           
  1013                           ; BSR set to: 0
  1014                           ;can\CANlib.h: 302: else
  1015                           ;can\CANlib.h: 303: TXB0DLCbits.TXRTR = 0x00;
  1016  000CA2  010F               	movlb	15	; () banked
  1017  000CA4  9D45               	bcf	69,6,b	;volatile
  1018  000CA6                     l341:
  1019                           
  1020                           ; BSR set to: 15
  1021                           ;can\CANlib.h: 305: if (CAN_TX_FRAME_MASK & flags)
  1022  000CA6  0100               	movlb	0	; () banked
  1023  000CA8  A77A               	btfss	CANsendMessage@flags& (0+255),3,b
  1024  000CAA  D079               	goto	l342
  1025                           
  1026                           ; BSR set to: 0
  1027                           ;can\CANlib.h: 306: {
  1028                           ;can\CANlib.h: 308: tamp = identifier & 0x000000FF;
  1029  000CAC  0100               	movlb	0	; () banked
  1030  000CAE  5173               	movf	CANsendMessage@identifier& (0+255),w,b
  1031  000CB0  0100               	movlb	0	; () banked
  1032  000CB2  6F7F               	movwf	CANsendMessage@tamp& (0+255),b
  1033  000CB4  6B80               	clrf	(CANsendMessage@tamp+1)& (0+255),b
  1034  000CB6  6B81               	clrf	(CANsendMessage@tamp+2)& (0+255),b
  1035  000CB8  6B82               	clrf	(CANsendMessage@tamp+3)& (0+255),b
  1036                           
  1037                           ; BSR set to: 0
  1038                           ;can\CANlib.h: 309: TXB0EIDL = (unsigned char) tamp;
  1039  000CBA  C07F  FF44         	movff	CANsendMessage@tamp,3908	;volatile
  1040                           
  1041                           ; BSR set to: 0
  1042                           ;can\CANlib.h: 311: tamp = identifier & 0x0000FF00;
  1043  000CBE  0E00               	movlw	0
  1044  000CC0  0100               	movlb	0	; () banked
  1045  000CC2  1573               	andwf	CANsendMessage@identifier& (0+255),w,b
  1046  000CC4  0100               	movlb	0	; () banked
  1047  000CC6  6F7F               	movwf	CANsendMessage@tamp& (0+255),b
  1048  000CC8  0EFF               	movlw	255
  1049  000CCA  0100               	movlb	0	; () banked
  1050  000CCC  1574               	andwf	(CANsendMessage@identifier+1)& (0+255),w,b
  1051  000CCE  0100               	movlb	0	; () banked
  1052  000CD0  6F80               	movwf	(CANsendMessage@tamp+1)& (0+255),b
  1053  000CD2  0E00               	movlw	0
  1054  000CD4  0100               	movlb	0	; () banked
  1055  000CD6  1575               	andwf	(CANsendMessage@identifier+2)& (0+255),w,b
  1056  000CD8  0100               	movlb	0	; () banked
  1057  000CDA  6F81               	movwf	(CANsendMessage@tamp+2)& (0+255),b
  1058  000CDC  0E00               	movlw	0
  1059  000CDE  0100               	movlb	0	; () banked
  1060  000CE0  1576               	andwf	(CANsendMessage@identifier+3)& (0+255),w,b
  1061  000CE2  0100               	movlb	0	; () banked
  1062  000CE4  6F82               	movwf	(CANsendMessage@tamp+3)& (0+255),b
  1063                           
  1064                           ; BSR set to: 0
  1065                           ;can\CANlib.h: 312: tamp = tamp >> 8;
  1066  000CE6  C07F  F07B         	movff	CANsendMessage@tamp,??_CANsendMessage
  1067  000CEA  C080  F07C         	movff	CANsendMessage@tamp+1,??_CANsendMessage+1
  1068  000CEE  C081  F07D         	movff	CANsendMessage@tamp+2,??_CANsendMessage+2
  1069  000CF2  C082  F07E         	movff	CANsendMessage@tamp+3,??_CANsendMessage+3
  1070  000CF6  C07C  F07B         	movff	??_CANsendMessage+1,??_CANsendMessage
  1071  000CFA  C07D  F07C         	movff	??_CANsendMessage+2,??_CANsendMessage+1
  1072  000CFE  C07E  F07D         	movff	??_CANsendMessage+3,??_CANsendMessage+2
  1073  000D02  0100               	movlb	0	; () banked
  1074  000D04  6B7E               	clrf	(??_CANsendMessage+3)& (0+255),b
  1075  000D06  C07B  F07F         	movff	??_CANsendMessage,CANsendMessage@tamp
  1076  000D0A  C07C  F080         	movff	??_CANsendMessage+1,CANsendMessage@tamp+1
  1077  000D0E  C07D  F081         	movff	??_CANsendMessage+2,CANsendMessage@tamp+2
  1078  000D12  C07E  F082         	movff	??_CANsendMessage+3,CANsendMessage@tamp+3
  1079                           
  1080                           ; BSR set to: 0
  1081                           ;can\CANlib.h: 313: TXB0EIDH = (unsigned char) tamp;
  1082  000D16  C07F  FF43         	movff	CANsendMessage@tamp,3907	;volatile
  1083                           
  1084                           ; BSR set to: 0
  1085                           ;can\CANlib.h: 315: TXB0SIDL = 0x00;
  1086  000D1A  0E00               	movlw	0
  1087  000D1C  010F               	movlb	15	; () banked
  1088  000D1E  6F42               	movwf	66,b	;volatile
  1089                           
  1090                           ; BSR set to: 15
  1091                           ;can\CANlib.h: 316: TXB0SIDLbits.EXIDE = 0x01;
  1092  000D20  010F               	movlb	15	; () banked
  1093  000D22  8742               	bsf	66,3,b	;volatile
  1094                           
  1095                           ; BSR set to: 15
  1096                           ;can\CANlib.h: 318: if (identifier & 0x00010000)
  1097  000D24  0100               	movlb	0	; () banked
  1098  000D26  A175               	btfss	(CANsendMessage@identifier+2)& (0+255),0,b
  1099  000D28  D002               	goto	l343
  1100                           
  1101                           ; BSR set to: 0
  1102                           ;can\CANlib.h: 319: TXB0SIDLbits.EID16 = 0x01;
  1103  000D2A  010F               	movlb	15	; () banked
  1104  000D2C  8142               	bsf	66,0,b	;volatile
  1105  000D2E                     l343:
  1106                           
  1107                           ;can\CANlib.h: 320: if (identifier & 0x00020000)
  1108  000D2E  0100               	movlb	0	; () banked
  1109  000D30  A375               	btfss	(CANsendMessage@identifier+2)& (0+255),1,b
  1110  000D32  D002               	goto	l344
  1111                           
  1112                           ; BSR set to: 0
  1113                           ;can\CANlib.h: 321: TXB0SIDLbits.EID17 = 0x01;
  1114  000D34  010F               	movlb	15	; () banked
  1115  000D36  8342               	bsf	66,1,b	;volatile
  1116  000D38                     l344:
  1117                           
  1118                           ;can\CANlib.h: 322: if (identifier & 0x00040000)
  1119  000D38  0100               	movlb	0	; () banked
  1120  000D3A  A575               	btfss	(CANsendMessage@identifier+2)& (0+255),2,b
  1121  000D3C  D002               	goto	l345
  1122                           
  1123                           ; BSR set to: 0
  1124                           ;can\CANlib.h: 323: TXB0SIDLbits.SID0 = 0x01;
  1125  000D3E  010F               	movlb	15	; () banked
  1126  000D40  8B42               	bsf	66,5,b	;volatile
  1127  000D42                     l345:
  1128                           
  1129                           ;can\CANlib.h: 324: if (identifier & 0x00080000)
  1130  000D42  0100               	movlb	0	; () banked
  1131  000D44  A775               	btfss	(CANsendMessage@identifier+2)& (0+255),3,b
  1132  000D46  D002               	goto	l346
  1133                           
  1134                           ; BSR set to: 0
  1135                           ;can\CANlib.h: 325: TXB0SIDLbits.SID1 = 0x01;
  1136  000D48  010F               	movlb	15	; () banked
  1137  000D4A  8D42               	bsf	66,6,b	;volatile
  1138  000D4C                     l346:
  1139                           
  1140                           ;can\CANlib.h: 326: if (identifier & 0x00100000)
  1141  000D4C  0100               	movlb	0	; () banked
  1142  000D4E  A975               	btfss	(CANsendMessage@identifier+2)& (0+255),4,b
  1143  000D50  D002               	goto	l3095
  1144                           
  1145                           ; BSR set to: 0
  1146                           ;can\CANlib.h: 327: TXB0SIDLbits.SID2 = 0x01;
  1147  000D52  010F               	movlb	15	; () banked
  1148  000D54  8F42               	bsf	66,7,b	;volatile
  1149  000D56                     l3095:
  1150                           
  1151                           ;can\CANlib.h: 329: tamp = (identifier >> 21);
  1152  000D56  C073  F07B         	movff	CANsendMessage@identifier,??_CANsendMessage
  1153  000D5A  C074  F07C         	movff	CANsendMessage@identifier+1,??_CANsendMessage+1
  1154  000D5E  C075  F07D         	movff	CANsendMessage@identifier+2,??_CANsendMessage+2
  1155  000D62  C076  F07E         	movff	CANsendMessage@identifier+3,??_CANsendMessage+3
  1156  000D66  0E16               	movlw	22
  1157  000D68  D006               	goto	u3470
  1158  000D6A                     u3475:
  1159  000D6A  0100               	movlb	0	; () banked
  1160  000D6C  90D8               	bcf	status,0,c
  1161  000D6E  337E               	rrcf	(??_CANsendMessage+3)& (0+255),f,b
  1162  000D70  337D               	rrcf	(??_CANsendMessage+2)& (0+255),f,b
  1163  000D72  337C               	rrcf	(??_CANsendMessage+1)& (0+255),f,b
  1164  000D74  337B               	rrcf	??_CANsendMessage& (0+255),f,b
  1165  000D76                     u3470:
  1166  000D76  2EE8               	decfsz	wreg,f,c
  1167  000D78  D7F8               	goto	u3475
  1168  000D7A  C07B  F07F         	movff	??_CANsendMessage,CANsendMessage@tamp
  1169  000D7E  C07C  F080         	movff	??_CANsendMessage+1,CANsendMessage@tamp+1
  1170  000D82  C07D  F081         	movff	??_CANsendMessage+2,CANsendMessage@tamp+2
  1171  000D86  C07E  F082         	movff	??_CANsendMessage+3,CANsendMessage@tamp+3
  1172                           
  1173                           ; BSR set to: 0
  1174                           ;can\CANlib.h: 330: tamp = tamp & 0x000000FF;
  1175  000D8A  0100               	movlb	0	; () banked
  1176  000D8C  517F               	movf	CANsendMessage@tamp& (0+255),w,b
  1177  000D8E  0100               	movlb	0	; () banked
  1178  000D90  6F7F               	movwf	CANsendMessage@tamp& (0+255),b
  1179  000D92  6B80               	clrf	(CANsendMessage@tamp+1)& (0+255),b
  1180  000D94  6B81               	clrf	(CANsendMessage@tamp+2)& (0+255),b
  1181  000D96  6B82               	clrf	(CANsendMessage@tamp+3)& (0+255),b
  1182                           
  1183                           ; BSR set to: 0
  1184                           ;can\CANlib.h: 331: TXB0SIDH = (unsigned char) tamp;
  1185  000D98  C07F  FF41         	movff	CANsendMessage@tamp,3905	;volatile
  1186                           
  1187                           ;can\CANlib.h: 332: }
  1188  000D9C  D059               	goto	l3115
  1189  000D9E                     l342:
  1190                           
  1191                           ; BSR set to: 0
  1192                           ;can\CANlib.h: 334: else
  1193                           ;can\CANlib.h: 336: {
  1194                           ;can\CANlib.h: 337: TXB0SIDLbits.EXIDE = 0x00;
  1195  000D9E  010F               	movlb	15	; () banked
  1196  000DA0  9742               	bcf	66,3,b	;volatile
  1197                           
  1198                           ; BSR set to: 15
  1199                           ;can\CANlib.h: 339: tamp = (identifier >> 3);
  1200  000DA2  C073  F07B         	movff	CANsendMessage@identifier,??_CANsendMessage
  1201  000DA6  C074  F07C         	movff	CANsendMessage@identifier+1,??_CANsendMessage+1
  1202  000DAA  C075  F07D         	movff	CANsendMessage@identifier+2,??_CANsendMessage+2
  1203  000DAE  C076  F07E         	movff	CANsendMessage@identifier+3,??_CANsendMessage+3
  1204  000DB2  0E04               	movlw	4
  1205  000DB4  D006               	goto	u3480
  1206  000DB6                     u3485:
  1207  000DB6  0100               	movlb	0	; () banked
  1208  000DB8  90D8               	bcf	status,0,c
  1209  000DBA  337E               	rrcf	(??_CANsendMessage+3)& (0+255),f,b
  1210  000DBC  337D               	rrcf	(??_CANsendMessage+2)& (0+255),f,b
  1211  000DBE  337C               	rrcf	(??_CANsendMessage+1)& (0+255),f,b
  1212  000DC0  337B               	rrcf	??_CANsendMessage& (0+255),f,b
  1213  000DC2                     u3480:
  1214  000DC2  2EE8               	decfsz	wreg,f,c
  1215  000DC4  D7F8               	goto	u3485
  1216  000DC6  C07B  F07F         	movff	??_CANsendMessage,CANsendMessage@tamp
  1217  000DCA  C07C  F080         	movff	??_CANsendMessage+1,CANsendMessage@tamp+1
  1218  000DCE  C07D  F081         	movff	??_CANsendMessage+2,CANsendMessage@tamp+2
  1219  000DD2  C07E  F082         	movff	??_CANsendMessage+3,CANsendMessage@tamp+3
  1220                           
  1221                           ; BSR set to: 0
  1222                           ;can\CANlib.h: 340: tamp = tamp & 0x000000FF;
  1223  000DD6  0100               	movlb	0	; () banked
  1224  000DD8  517F               	movf	CANsendMessage@tamp& (0+255),w,b
  1225  000DDA  0100               	movlb	0	; () banked
  1226  000DDC  6F7F               	movwf	CANsendMessage@tamp& (0+255),b
  1227  000DDE  6B80               	clrf	(CANsendMessage@tamp+1)& (0+255),b
  1228  000DE0  6B81               	clrf	(CANsendMessage@tamp+2)& (0+255),b
  1229  000DE2  6B82               	clrf	(CANsendMessage@tamp+3)& (0+255),b
  1230                           
  1231                           ; BSR set to: 0
  1232                           ;can\CANlib.h: 341: TXB0SIDH = (unsigned char) tamp;
  1233  000DE4  C07F  FF41         	movff	CANsendMessage@tamp,3905	;volatile
  1234                           
  1235                           ; BSR set to: 0
  1236                           ;can\CANlib.h: 343: tamp = identifier & 0x00000007;
  1237  000DE8  0E07               	movlw	7
  1238  000DEA  0100               	movlb	0	; () banked
  1239  000DEC  1573               	andwf	CANsendMessage@identifier& (0+255),w,b
  1240  000DEE  0100               	movlb	0	; () banked
  1241  000DF0  6F7F               	movwf	CANsendMessage@tamp& (0+255),b
  1242  000DF2  0E00               	movlw	0
  1243  000DF4  0100               	movlb	0	; () banked
  1244  000DF6  1574               	andwf	(CANsendMessage@identifier+1)& (0+255),w,b
  1245  000DF8  0100               	movlb	0	; () banked
  1246  000DFA  6F80               	movwf	(CANsendMessage@tamp+1)& (0+255),b
  1247  000DFC  0E00               	movlw	0
  1248  000DFE  0100               	movlb	0	; () banked
  1249  000E00  1575               	andwf	(CANsendMessage@identifier+2)& (0+255),w,b
  1250  000E02  0100               	movlb	0	; () banked
  1251  000E04  6F81               	movwf	(CANsendMessage@tamp+2)& (0+255),b
  1252  000E06  0E00               	movlw	0
  1253  000E08  0100               	movlb	0	; () banked
  1254  000E0A  1576               	andwf	(CANsendMessage@identifier+3)& (0+255),w,b
  1255  000E0C  0100               	movlb	0	; () banked
  1256  000E0E  6F82               	movwf	(CANsendMessage@tamp+3)& (0+255),b
  1257                           
  1258                           ; BSR set to: 0
  1259                           ;can\CANlib.h: 344: tamp = tamp << 5;
  1260  000E10  C07F  F07B         	movff	CANsendMessage@tamp,??_CANsendMessage
  1261  000E14  C080  F07C         	movff	CANsendMessage@tamp+1,??_CANsendMessage+1
  1262  000E18  C081  F07D         	movff	CANsendMessage@tamp+2,??_CANsendMessage+2
  1263  000E1C  C082  F07E         	movff	CANsendMessage@tamp+3,??_CANsendMessage+3
  1264  000E20  0E05               	movlw	5
  1265  000E22                     u3495:
  1266  000E22  90D8               	bcf	status,0,c
  1267  000E24  0100               	movlb	0	; () banked
  1268  000E26  377B               	rlcf	??_CANsendMessage& (0+255),f,b
  1269  000E28  377C               	rlcf	(??_CANsendMessage+1)& (0+255),f,b
  1270  000E2A  377D               	rlcf	(??_CANsendMessage+2)& (0+255),f,b
  1271  000E2C  377E               	rlcf	(??_CANsendMessage+3)& (0+255),f,b
  1272  000E2E  2EE8               	decfsz	wreg,f,c
  1273  000E30  D7F8               	goto	u3495
  1274  000E32  C07B  F07F         	movff	??_CANsendMessage,CANsendMessage@tamp
  1275  000E36  C07C  F080         	movff	??_CANsendMessage+1,CANsendMessage@tamp+1
  1276  000E3A  C07D  F081         	movff	??_CANsendMessage+2,CANsendMessage@tamp+2
  1277  000E3E  C07E  F082         	movff	??_CANsendMessage+3,CANsendMessage@tamp+3
  1278                           
  1279                           ; BSR set to: 0
  1280                           ;can\CANlib.h: 345: TXB0SIDL = TXB0SIDL & 0b00011111;
  1281  000E42  010F               	movlb	15	; () banked
  1282  000E44  5142               	movf	66,w,b	;volatile
  1283  000E46  0B1F               	andlw	31
  1284  000E48  010F               	movlb	15	; () banked
  1285  000E4A  6F42               	movwf	66,b	;volatile
  1286                           
  1287                           ; BSR set to: 15
  1288                           ;can\CANlib.h: 346: TXB0SIDL = (unsigned char) tamp;
  1289  000E4C  C07F  FF42         	movff	CANsendMessage@tamp,3906	;volatile
  1290  000E50                     l3115:
  1291                           
  1292                           ;can\CANlib.h: 347: }
  1293                           ;can\CANlib.h: 349: if (0b00000001 & flags)
  1294  000E50  0100               	movlb	0	; () banked
  1295  000E52  A17A               	btfss	CANsendMessage@flags& (0+255),0,b
  1296  000E54  D003               	goto	l349
  1297                           
  1298                           ; BSR set to: 0
  1299                           ;can\CANlib.h: 350: TXB0CONbits.TXPRI0 = 0x01;
  1300  000E56  010F               	movlb	15	; () banked
  1301  000E58  8140               	bsf	64,0,b	;volatile
  1302  000E5A  D002               	goto	l350
  1303  000E5C                     l349:
  1304                           
  1305                           ; BSR set to: 0
  1306                           ;can\CANlib.h: 351: else
  1307                           ;can\CANlib.h: 352: TXB0CONbits.TXPRI0 = 0x00;
  1308  000E5C  010F               	movlb	15	; () banked
  1309  000E5E  9140               	bcf	64,0,b	;volatile
  1310  000E60                     l350:
  1311                           
  1312                           ; BSR set to: 15
  1313                           ;can\CANlib.h: 353: if (0b00000010 & flags)
  1314  000E60  0100               	movlb	0	; () banked
  1315  000E62  A37A               	btfss	CANsendMessage@flags& (0+255),1,b
  1316  000E64  D003               	goto	l351
  1317                           
  1318                           ; BSR set to: 0
  1319                           ;can\CANlib.h: 354: TXB0CONbits.TXPRI1 = 0x01;
  1320  000E66  010F               	movlb	15	; () banked
  1321  000E68  8340               	bsf	64,1,b	;volatile
  1322  000E6A  D002               	goto	l3121
  1323  000E6C                     l351:
  1324                           
  1325                           ; BSR set to: 0
  1326                           ;can\CANlib.h: 355: else
  1327                           ;can\CANlib.h: 356: TXB0CONbits.TXPRI1 = 0x00;
  1328  000E6C  010F               	movlb	15	; () banked
  1329  000E6E  9340               	bcf	64,1,b	;volatile
  1330  000E70                     l3121:
  1331                           
  1332                           ; BSR set to: 15
  1333                           ;can\CANlib.h: 358: TXB0D0 = data[0];
  1334  000E70  C077  FFD9         	movff	CANsendMessage@data,fsr2l
  1335  000E74  C078  FFDA         	movff	CANsendMessage@data+1,fsr2h
  1336  000E78  50DF               	movf	indf2,w,c
  1337  000E7A  010F               	movlb	15	; () banked
  1338  000E7C  6F46               	movwf	70,b	;volatile
  1339                           
  1340                           ; BSR set to: 15
  1341                           ;can\CANlib.h: 359: TXB0D1 = data[1];
  1342  000E7E  0100               	movlb	0	; () banked
  1343  000E80  EE20 F001          	lfsr	2,1
  1344  000E84  5177               	movf	CANsendMessage@data& (0+255),w,b
  1345  000E86  26D9               	addwf	fsr2l,f,c
  1346  000E88  5178               	movf	(CANsendMessage@data+1)& (0+255),w,b
  1347  000E8A  22DA               	addwfc	fsr2h,f,c
  1348  000E8C  50DF               	movf	indf2,w,c
  1349  000E8E  010F               	movlb	15	; () banked
  1350  000E90  6F47               	movwf	71,b	;volatile
  1351                           
  1352                           ; BSR set to: 15
  1353                           ;can\CANlib.h: 360: TXB0D2 = data[2];
  1354  000E92  0100               	movlb	0	; () banked
  1355  000E94  EE20 F002          	lfsr	2,2
  1356  000E98  5177               	movf	CANsendMessage@data& (0+255),w,b
  1357  000E9A  26D9               	addwf	fsr2l,f,c
  1358  000E9C  5178               	movf	(CANsendMessage@data+1)& (0+255),w,b
  1359  000E9E  22DA               	addwfc	fsr2h,f,c
  1360  000EA0  50DF               	movf	indf2,w,c
  1361  000EA2  010F               	movlb	15	; () banked
  1362  000EA4  6F48               	movwf	72,b	;volatile
  1363                           
  1364                           ; BSR set to: 15
  1365                           ;can\CANlib.h: 361: TXB0D3 = data[3];
  1366  000EA6  0100               	movlb	0	; () banked
  1367  000EA8  EE20 F003          	lfsr	2,3
  1368  000EAC  5177               	movf	CANsendMessage@data& (0+255),w,b
  1369  000EAE  26D9               	addwf	fsr2l,f,c
  1370  000EB0  5178               	movf	(CANsendMessage@data+1)& (0+255),w,b
  1371  000EB2  22DA               	addwfc	fsr2h,f,c
  1372  000EB4  50DF               	movf	indf2,w,c
  1373  000EB6  010F               	movlb	15	; () banked
  1374  000EB8  6F49               	movwf	73,b	;volatile
  1375                           
  1376                           ; BSR set to: 15
  1377                           ;can\CANlib.h: 362: TXB0D4 = data[4];
  1378  000EBA  0100               	movlb	0	; () banked
  1379  000EBC  EE20 F004          	lfsr	2,4
  1380  000EC0  5177               	movf	CANsendMessage@data& (0+255),w,b
  1381  000EC2  26D9               	addwf	fsr2l,f,c
  1382  000EC4  5178               	movf	(CANsendMessage@data+1)& (0+255),w,b
  1383  000EC6  22DA               	addwfc	fsr2h,f,c
  1384  000EC8  50DF               	movf	indf2,w,c
  1385  000ECA  010F               	movlb	15	; () banked
  1386  000ECC  6F4A               	movwf	74,b	;volatile
  1387                           
  1388                           ; BSR set to: 15
  1389                           ;can\CANlib.h: 363: TXB0D5 = data[5];
  1390  000ECE  0100               	movlb	0	; () banked
  1391  000ED0  EE20 F005          	lfsr	2,5
  1392  000ED4  5177               	movf	CANsendMessage@data& (0+255),w,b
  1393  000ED6  26D9               	addwf	fsr2l,f,c
  1394  000ED8  5178               	movf	(CANsendMessage@data+1)& (0+255),w,b
  1395  000EDA  22DA               	addwfc	fsr2h,f,c
  1396  000EDC  50DF               	movf	indf2,w,c
  1397  000EDE  010F               	movlb	15	; () banked
  1398  000EE0  6F4B               	movwf	75,b	;volatile
  1399                           
  1400                           ; BSR set to: 15
  1401                           ;can\CANlib.h: 364: TXB0D6 = data[6];
  1402  000EE2  0100               	movlb	0	; () banked
  1403  000EE4  EE20 F006          	lfsr	2,6
  1404  000EE8  5177               	movf	CANsendMessage@data& (0+255),w,b
  1405  000EEA  26D9               	addwf	fsr2l,f,c
  1406  000EEC  5178               	movf	(CANsendMessage@data+1)& (0+255),w,b
  1407  000EEE  22DA               	addwfc	fsr2h,f,c
  1408  000EF0  50DF               	movf	indf2,w,c
  1409  000EF2  010F               	movlb	15	; () banked
  1410  000EF4  6F4C               	movwf	76,b	;volatile
  1411                           
  1412                           ; BSR set to: 15
  1413                           ;can\CANlib.h: 365: TXB0D7 = data[7];
  1414  000EF6  0100               	movlb	0	; () banked
  1415  000EF8  EE20 F007          	lfsr	2,7
  1416  000EFC  5177               	movf	CANsendMessage@data& (0+255),w,b
  1417  000EFE  26D9               	addwf	fsr2l,f,c
  1418  000F00  5178               	movf	(CANsendMessage@data+1)& (0+255),w,b
  1419  000F02  22DA               	addwfc	fsr2h,f,c
  1420  000F04  50DF               	movf	indf2,w,c
  1421  000F06  010F               	movlb	15	; () banked
  1422  000F08  6F4D               	movwf	77,b	;volatile
  1423                           
  1424                           ; BSR set to: 15
  1425                           ;can\CANlib.h: 367: TXB0CONbits.TXREQ = 0x01;
  1426  000F0A  010F               	movlb	15	; () banked
  1427  000F0C  8740               	bsf	64,3,b	;volatile
  1428                           
  1429                           ; BSR set to: 15
  1430                           ;can\CANlib.h: 368: return;
  1431  000F0E  0012               	return	
  1432  000F10                     l339:
  1433                           
  1434                           ; BSR set to: 15
  1435                           ;can\CANlib.h: 369: }
  1436                           ;can\CANlib.h: 373: if (TXB1CONbits.TXREQ == 0)
  1437  000F10  010F               	movlb	15	; () banked
  1438  000F12  B730               	btfsc	48,3,b	;volatile
  1439  000F14  D13F               	goto	l354
  1440                           
  1441                           ; BSR set to: 15
  1442                           ;can\CANlib.h: 374: { TXB1DLC = dataLength;
  1443  000F16  C079  FF35         	movff	CANsendMessage@dataLength,3893	;volatile
  1444                           
  1445                           ;can\CANlib.h: 376: if (0b01000000 & flags)
  1446  000F1A  0100               	movlb	0	; () banked
  1447  000F1C  AD7A               	btfss	CANsendMessage@flags& (0+255),6,b
  1448  000F1E  D003               	goto	l355
  1449                           
  1450                           ; BSR set to: 0
  1451                           ;can\CANlib.h: 377: TXB1DLCbits.TXRTR = 0x01;
  1452  000F20  010F               	movlb	15	; () banked
  1453  000F22  8D35               	bsf	53,6,b	;volatile
  1454  000F24  D002               	goto	l356
  1455  000F26                     l355:
  1456                           
  1457                           ; BSR set to: 0
  1458                           ;can\CANlib.h: 378: else
  1459                           ;can\CANlib.h: 379: TXB1DLCbits.TXRTR = 0x00;
  1460  000F26  010F               	movlb	15	; () banked
  1461  000F28  9D35               	bcf	53,6,b	;volatile
  1462  000F2A                     l356:
  1463                           
  1464                           ; BSR set to: 15
  1465                           ;can\CANlib.h: 381: if (CAN_TX_FRAME_MASK & flags)
  1466  000F2A  0100               	movlb	0	; () banked
  1467  000F2C  A77A               	btfss	CANsendMessage@flags& (0+255),3,b
  1468  000F2E  D079               	goto	l357
  1469                           
  1470                           ; BSR set to: 0
  1471                           ;can\CANlib.h: 382: {
  1472                           ;can\CANlib.h: 383: tamp = identifier & 0x000000FF;
  1473  000F30  0100               	movlb	0	; () banked
  1474  000F32  5173               	movf	CANsendMessage@identifier& (0+255),w,b
  1475  000F34  0100               	movlb	0	; () banked
  1476  000F36  6F7F               	movwf	CANsendMessage@tamp& (0+255),b
  1477  000F38  6B80               	clrf	(CANsendMessage@tamp+1)& (0+255),b
  1478  000F3A  6B81               	clrf	(CANsendMessage@tamp+2)& (0+255),b
  1479  000F3C  6B82               	clrf	(CANsendMessage@tamp+3)& (0+255),b
  1480                           
  1481                           ; BSR set to: 0
  1482                           ;can\CANlib.h: 384: TXB1EIDL = (unsigned char) tamp;
  1483  000F3E  C07F  FF34         	movff	CANsendMessage@tamp,3892	;volatile
  1484                           
  1485                           ; BSR set to: 0
  1486                           ;can\CANlib.h: 386: tamp = identifier & 0x0000FF00;
  1487  000F42  0E00               	movlw	0
  1488  000F44  0100               	movlb	0	; () banked
  1489  000F46  1573               	andwf	CANsendMessage@identifier& (0+255),w,b
  1490  000F48  0100               	movlb	0	; () banked
  1491  000F4A  6F7F               	movwf	CANsendMessage@tamp& (0+255),b
  1492  000F4C  0EFF               	movlw	255
  1493  000F4E  0100               	movlb	0	; () banked
  1494  000F50  1574               	andwf	(CANsendMessage@identifier+1)& (0+255),w,b
  1495  000F52  0100               	movlb	0	; () banked
  1496  000F54  6F80               	movwf	(CANsendMessage@tamp+1)& (0+255),b
  1497  000F56  0E00               	movlw	0
  1498  000F58  0100               	movlb	0	; () banked
  1499  000F5A  1575               	andwf	(CANsendMessage@identifier+2)& (0+255),w,b
  1500  000F5C  0100               	movlb	0	; () banked
  1501  000F5E  6F81               	movwf	(CANsendMessage@tamp+2)& (0+255),b
  1502  000F60  0E00               	movlw	0
  1503  000F62  0100               	movlb	0	; () banked
  1504  000F64  1576               	andwf	(CANsendMessage@identifier+3)& (0+255),w,b
  1505  000F66  0100               	movlb	0	; () banked
  1506  000F68  6F82               	movwf	(CANsendMessage@tamp+3)& (0+255),b
  1507                           
  1508                           ; BSR set to: 0
  1509                           ;can\CANlib.h: 387: tamp = tamp >> 8;
  1510  000F6A  C07F  F07B         	movff	CANsendMessage@tamp,??_CANsendMessage
  1511  000F6E  C080  F07C         	movff	CANsendMessage@tamp+1,??_CANsendMessage+1
  1512  000F72  C081  F07D         	movff	CANsendMessage@tamp+2,??_CANsendMessage+2
  1513  000F76  C082  F07E         	movff	CANsendMessage@tamp+3,??_CANsendMessage+3
  1514  000F7A  C07C  F07B         	movff	??_CANsendMessage+1,??_CANsendMessage
  1515  000F7E  C07D  F07C         	movff	??_CANsendMessage+2,??_CANsendMessage+1
  1516  000F82  C07E  F07D         	movff	??_CANsendMessage+3,??_CANsendMessage+2
  1517  000F86  0100               	movlb	0	; () banked
  1518  000F88  6B7E               	clrf	(??_CANsendMessage+3)& (0+255),b
  1519  000F8A  C07B  F07F         	movff	??_CANsendMessage,CANsendMessage@tamp
  1520  000F8E  C07C  F080         	movff	??_CANsendMessage+1,CANsendMessage@tamp+1
  1521  000F92  C07D  F081         	movff	??_CANsendMessage+2,CANsendMessage@tamp+2
  1522  000F96  C07E  F082         	movff	??_CANsendMessage+3,CANsendMessage@tamp+3
  1523                           
  1524                           ; BSR set to: 0
  1525                           ;can\CANlib.h: 388: TXB1EIDH = (unsigned char) tamp;
  1526  000F9A  C07F  FF33         	movff	CANsendMessage@tamp,3891	;volatile
  1527                           
  1528                           ; BSR set to: 0
  1529                           ;can\CANlib.h: 390: TXB1SIDL = 0x00;
  1530  000F9E  0E00               	movlw	0
  1531  000FA0  010F               	movlb	15	; () banked
  1532  000FA2  6F32               	movwf	50,b	;volatile
  1533                           
  1534                           ; BSR set to: 15
  1535                           ;can\CANlib.h: 391: TXB1SIDLbits.EXIDE = 0x01;
  1536  000FA4  010F               	movlb	15	; () banked
  1537  000FA6  8732               	bsf	50,3,b	;volatile
  1538                           
  1539                           ; BSR set to: 15
  1540                           ;can\CANlib.h: 393: if (identifier & 0x00010000)
  1541  000FA8  0100               	movlb	0	; () banked
  1542  000FAA  A175               	btfss	(CANsendMessage@identifier+2)& (0+255),0,b
  1543  000FAC  D002               	goto	l358
  1544                           
  1545                           ; BSR set to: 0
  1546                           ;can\CANlib.h: 394: TXB1SIDLbits.EID16 = 0x01;
  1547  000FAE  010F               	movlb	15	; () banked
  1548  000FB0  8132               	bsf	50,0,b	;volatile
  1549  000FB2                     l358:
  1550                           
  1551                           ;can\CANlib.h: 395: if (identifier & 0x00020000)
  1552  000FB2  0100               	movlb	0	; () banked
  1553  000FB4  A375               	btfss	(CANsendMessage@identifier+2)& (0+255),1,b
  1554  000FB6  D002               	goto	l359
  1555                           
  1556                           ; BSR set to: 0
  1557                           ;can\CANlib.h: 396: TXB1SIDLbits.EID17 = 0x01;
  1558  000FB8  010F               	movlb	15	; () banked
  1559  000FBA  8332               	bsf	50,1,b	;volatile
  1560  000FBC                     l359:
  1561                           
  1562                           ;can\CANlib.h: 397: if (identifier & 0x00040000)
  1563  000FBC  0100               	movlb	0	; () banked
  1564  000FBE  A575               	btfss	(CANsendMessage@identifier+2)& (0+255),2,b
  1565  000FC0  D002               	goto	l360
  1566                           
  1567                           ; BSR set to: 0
  1568                           ;can\CANlib.h: 398: TXB1SIDLbits.SID0 = 0x01;
  1569  000FC2  010F               	movlb	15	; () banked
  1570  000FC4  8B32               	bsf	50,5,b	;volatile
  1571  000FC6                     l360:
  1572                           
  1573                           ;can\CANlib.h: 399: if (identifier & 0x00080000)
  1574  000FC6  0100               	movlb	0	; () banked
  1575  000FC8  A775               	btfss	(CANsendMessage@identifier+2)& (0+255),3,b
  1576  000FCA  D002               	goto	l361
  1577                           
  1578                           ; BSR set to: 0
  1579                           ;can\CANlib.h: 400: TXB1SIDLbits.SID1 = 0x01;
  1580  000FCC  010F               	movlb	15	; () banked
  1581  000FCE  8D32               	bsf	50,6,b	;volatile
  1582  000FD0                     l361:
  1583                           
  1584                           ;can\CANlib.h: 401: if (identifier & 0x00100000)
  1585  000FD0  0100               	movlb	0	; () banked
  1586  000FD2  A975               	btfss	(CANsendMessage@identifier+2)& (0+255),4,b
  1587  000FD4  D002               	goto	l3171
  1588                           
  1589                           ; BSR set to: 0
  1590                           ;can\CANlib.h: 402: TXB1SIDLbits.SID2 = 0x01;
  1591  000FD6  010F               	movlb	15	; () banked
  1592  000FD8  8F32               	bsf	50,7,b	;volatile
  1593  000FDA                     l3171:
  1594                           
  1595                           ;can\CANlib.h: 404: tamp = (identifier >> 21);
  1596  000FDA  C073  F07B         	movff	CANsendMessage@identifier,??_CANsendMessage
  1597  000FDE  C074  F07C         	movff	CANsendMessage@identifier+1,??_CANsendMessage+1
  1598  000FE2  C075  F07D         	movff	CANsendMessage@identifier+2,??_CANsendMessage+2
  1599  000FE6  C076  F07E         	movff	CANsendMessage@identifier+3,??_CANsendMessage+3
  1600  000FEA  0E16               	movlw	22
  1601  000FEC  D006               	goto	u3600
  1602  000FEE                     u3605:
  1603  000FEE  0100               	movlb	0	; () banked
  1604  000FF0  90D8               	bcf	status,0,c
  1605  000FF2  337E               	rrcf	(??_CANsendMessage+3)& (0+255),f,b
  1606  000FF4  337D               	rrcf	(??_CANsendMessage+2)& (0+255),f,b
  1607  000FF6  337C               	rrcf	(??_CANsendMessage+1)& (0+255),f,b
  1608  000FF8  337B               	rrcf	??_CANsendMessage& (0+255),f,b
  1609  000FFA                     u3600:
  1610  000FFA  2EE8               	decfsz	wreg,f,c
  1611  000FFC  D7F8               	goto	u3605
  1612  000FFE  C07B  F07F         	movff	??_CANsendMessage,CANsendMessage@tamp
  1613  001002  C07C  F080         	movff	??_CANsendMessage+1,CANsendMessage@tamp+1
  1614  001006  C07D  F081         	movff	??_CANsendMessage+2,CANsendMessage@tamp+2
  1615  00100A  C07E  F082         	movff	??_CANsendMessage+3,CANsendMessage@tamp+3
  1616                           
  1617                           ; BSR set to: 0
  1618                           ;can\CANlib.h: 405: tamp = tamp & 0x000000FF;
  1619  00100E  0100               	movlb	0	; () banked
  1620  001010  517F               	movf	CANsendMessage@tamp& (0+255),w,b
  1621  001012  0100               	movlb	0	; () banked
  1622  001014  6F7F               	movwf	CANsendMessage@tamp& (0+255),b
  1623  001016  6B80               	clrf	(CANsendMessage@tamp+1)& (0+255),b
  1624  001018  6B81               	clrf	(CANsendMessage@tamp+2)& (0+255),b
  1625  00101A  6B82               	clrf	(CANsendMessage@tamp+3)& (0+255),b
  1626                           
  1627                           ; BSR set to: 0
  1628                           ;can\CANlib.h: 406: TXB1SIDH = (unsigned char) tamp;
  1629  00101C  C07F  FF31         	movff	CANsendMessage@tamp,3889	;volatile
  1630                           
  1631                           ;can\CANlib.h: 407: }
  1632  001020  D059               	goto	l3191
  1633  001022                     l357:
  1634                           
  1635                           ; BSR set to: 0
  1636                           ;can\CANlib.h: 409: else
  1637                           ;can\CANlib.h: 411: {
  1638                           ;can\CANlib.h: 412: TXB1SIDLbits.EXIDE = 0x00;
  1639  001022  010F               	movlb	15	; () banked
  1640  001024  9732               	bcf	50,3,b	;volatile
  1641                           
  1642                           ; BSR set to: 15
  1643                           ;can\CANlib.h: 414: tamp = (identifier >> 3);
  1644  001026  C073  F07B         	movff	CANsendMessage@identifier,??_CANsendMessage
  1645  00102A  C074  F07C         	movff	CANsendMessage@identifier+1,??_CANsendMessage+1
  1646  00102E  C075  F07D         	movff	CANsendMessage@identifier+2,??_CANsendMessage+2
  1647  001032  C076  F07E         	movff	CANsendMessage@identifier+3,??_CANsendMessage+3
  1648  001036  0E04               	movlw	4
  1649  001038  D006               	goto	u3610
  1650  00103A                     u3615:
  1651  00103A  0100               	movlb	0	; () banked
  1652  00103C  90D8               	bcf	status,0,c
  1653  00103E  337E               	rrcf	(??_CANsendMessage+3)& (0+255),f,b
  1654  001040  337D               	rrcf	(??_CANsendMessage+2)& (0+255),f,b
  1655  001042  337C               	rrcf	(??_CANsendMessage+1)& (0+255),f,b
  1656  001044  337B               	rrcf	??_CANsendMessage& (0+255),f,b
  1657  001046                     u3610:
  1658  001046  2EE8               	decfsz	wreg,f,c
  1659  001048  D7F8               	goto	u3615
  1660  00104A  C07B  F07F         	movff	??_CANsendMessage,CANsendMessage@tamp
  1661  00104E  C07C  F080         	movff	??_CANsendMessage+1,CANsendMessage@tamp+1
  1662  001052  C07D  F081         	movff	??_CANsendMessage+2,CANsendMessage@tamp+2
  1663  001056  C07E  F082         	movff	??_CANsendMessage+3,CANsendMessage@tamp+3
  1664                           
  1665                           ; BSR set to: 0
  1666                           ;can\CANlib.h: 415: tamp = tamp & 0x000000FF;
  1667  00105A  0100               	movlb	0	; () banked
  1668  00105C  517F               	movf	CANsendMessage@tamp& (0+255),w,b
  1669  00105E  0100               	movlb	0	; () banked
  1670  001060  6F7F               	movwf	CANsendMessage@tamp& (0+255),b
  1671  001062  6B80               	clrf	(CANsendMessage@tamp+1)& (0+255),b
  1672  001064  6B81               	clrf	(CANsendMessage@tamp+2)& (0+255),b
  1673  001066  6B82               	clrf	(CANsendMessage@tamp+3)& (0+255),b
  1674                           
  1675                           ; BSR set to: 0
  1676                           ;can\CANlib.h: 416: TXB1SIDH = (unsigned char) tamp;
  1677  001068  C07F  FF31         	movff	CANsendMessage@tamp,3889	;volatile
  1678                           
  1679                           ; BSR set to: 0
  1680                           ;can\CANlib.h: 418: tamp = identifier & 0x00000007;
  1681  00106C  0E07               	movlw	7
  1682  00106E  0100               	movlb	0	; () banked
  1683  001070  1573               	andwf	CANsendMessage@identifier& (0+255),w,b
  1684  001072  0100               	movlb	0	; () banked
  1685  001074  6F7F               	movwf	CANsendMessage@tamp& (0+255),b
  1686  001076  0E00               	movlw	0
  1687  001078  0100               	movlb	0	; () banked
  1688  00107A  1574               	andwf	(CANsendMessage@identifier+1)& (0+255),w,b
  1689  00107C  0100               	movlb	0	; () banked
  1690  00107E  6F80               	movwf	(CANsendMessage@tamp+1)& (0+255),b
  1691  001080  0E00               	movlw	0
  1692  001082  0100               	movlb	0	; () banked
  1693  001084  1575               	andwf	(CANsendMessage@identifier+2)& (0+255),w,b
  1694  001086  0100               	movlb	0	; () banked
  1695  001088  6F81               	movwf	(CANsendMessage@tamp+2)& (0+255),b
  1696  00108A  0E00               	movlw	0
  1697  00108C  0100               	movlb	0	; () banked
  1698  00108E  1576               	andwf	(CANsendMessage@identifier+3)& (0+255),w,b
  1699  001090  0100               	movlb	0	; () banked
  1700  001092  6F82               	movwf	(CANsendMessage@tamp+3)& (0+255),b
  1701                           
  1702                           ; BSR set to: 0
  1703                           ;can\CANlib.h: 419: tamp = tamp << 5;
  1704  001094  C07F  F07B         	movff	CANsendMessage@tamp,??_CANsendMessage
  1705  001098  C080  F07C         	movff	CANsendMessage@tamp+1,??_CANsendMessage+1
  1706  00109C  C081  F07D         	movff	CANsendMessage@tamp+2,??_CANsendMessage+2
  1707  0010A0  C082  F07E         	movff	CANsendMessage@tamp+3,??_CANsendMessage+3
  1708  0010A4  0E05               	movlw	5
  1709  0010A6                     u3625:
  1710  0010A6  90D8               	bcf	status,0,c
  1711  0010A8  0100               	movlb	0	; () banked
  1712  0010AA  377B               	rlcf	??_CANsendMessage& (0+255),f,b
  1713  0010AC  377C               	rlcf	(??_CANsendMessage+1)& (0+255),f,b
  1714  0010AE  377D               	rlcf	(??_CANsendMessage+2)& (0+255),f,b
  1715  0010B0  377E               	rlcf	(??_CANsendMessage+3)& (0+255),f,b
  1716  0010B2  2EE8               	decfsz	wreg,f,c
  1717  0010B4  D7F8               	goto	u3625
  1718  0010B6  C07B  F07F         	movff	??_CANsendMessage,CANsendMessage@tamp
  1719  0010BA  C07C  F080         	movff	??_CANsendMessage+1,CANsendMessage@tamp+1
  1720  0010BE  C07D  F081         	movff	??_CANsendMessage+2,CANsendMessage@tamp+2
  1721  0010C2  C07E  F082         	movff	??_CANsendMessage+3,CANsendMessage@tamp+3
  1722                           
  1723                           ; BSR set to: 0
  1724                           ;can\CANlib.h: 420: TXB1SIDL = TXB1SIDL & 0b00011111;
  1725  0010C6  010F               	movlb	15	; () banked
  1726  0010C8  5132               	movf	50,w,b	;volatile
  1727  0010CA  0B1F               	andlw	31
  1728  0010CC  010F               	movlb	15	; () banked
  1729  0010CE  6F32               	movwf	50,b	;volatile
  1730                           
  1731                           ; BSR set to: 15
  1732                           ;can\CANlib.h: 421: TXB1SIDL = (unsigned char) tamp;
  1733  0010D0  C07F  FF32         	movff	CANsendMessage@tamp,3890	;volatile
  1734  0010D4                     l3191:
  1735                           
  1736                           ;can\CANlib.h: 422: }
  1737                           ;can\CANlib.h: 424: if (0b00000001 & flags)
  1738  0010D4  0100               	movlb	0	; () banked
  1739  0010D6  A17A               	btfss	CANsendMessage@flags& (0+255),0,b
  1740  0010D8  D003               	goto	l364
  1741                           
  1742                           ; BSR set to: 0
  1743                           ;can\CANlib.h: 425: TXB1CONbits.TXPRI0 = 0x01;
  1744  0010DA  010F               	movlb	15	; () banked
  1745  0010DC  8130               	bsf	48,0,b	;volatile
  1746  0010DE  D002               	goto	l365
  1747  0010E0                     l364:
  1748                           
  1749                           ; BSR set to: 0
  1750                           ;can\CANlib.h: 426: else
  1751                           ;can\CANlib.h: 427: TXB1CONbits.TXPRI0 = 0x00;
  1752  0010E0  010F               	movlb	15	; () banked
  1753  0010E2  9130               	bcf	48,0,b	;volatile
  1754  0010E4                     l365:
  1755                           
  1756                           ; BSR set to: 15
  1757                           ;can\CANlib.h: 428: if (0b00000010 & flags)
  1758  0010E4  0100               	movlb	0	; () banked
  1759  0010E6  A37A               	btfss	CANsendMessage@flags& (0+255),1,b
  1760  0010E8  D003               	goto	l366
  1761                           
  1762                           ; BSR set to: 0
  1763                           ;can\CANlib.h: 429: TXB1CONbits.TXPRI1 = 0x01;
  1764  0010EA  010F               	movlb	15	; () banked
  1765  0010EC  8330               	bsf	48,1,b	;volatile
  1766  0010EE  D002               	goto	l3197
  1767  0010F0                     l366:
  1768                           
  1769                           ; BSR set to: 0
  1770                           ;can\CANlib.h: 430: else
  1771                           ;can\CANlib.h: 431: TXB1CONbits.TXPRI1 = 0x00;
  1772  0010F0  010F               	movlb	15	; () banked
  1773  0010F2  9330               	bcf	48,1,b	;volatile
  1774  0010F4                     l3197:
  1775                           
  1776                           ; BSR set to: 15
  1777                           ;can\CANlib.h: 433: TXB1D0 = data[0];
  1778  0010F4  C077  FFD9         	movff	CANsendMessage@data,fsr2l
  1779  0010F8  C078  FFDA         	movff	CANsendMessage@data+1,fsr2h
  1780  0010FC  50DF               	movf	indf2,w,c
  1781  0010FE  010F               	movlb	15	; () banked
  1782  001100  6F36               	movwf	54,b	;volatile
  1783                           
  1784                           ; BSR set to: 15
  1785                           ;can\CANlib.h: 434: TXB1D1 = data[1];
  1786  001102  0100               	movlb	0	; () banked
  1787  001104  EE20 F001          	lfsr	2,1
  1788  001108  5177               	movf	CANsendMessage@data& (0+255),w,b
  1789  00110A  26D9               	addwf	fsr2l,f,c
  1790  00110C  5178               	movf	(CANsendMessage@data+1)& (0+255),w,b
  1791  00110E  22DA               	addwfc	fsr2h,f,c
  1792  001110  50DF               	movf	indf2,w,c
  1793  001112  010F               	movlb	15	; () banked
  1794  001114  6F37               	movwf	55,b	;volatile
  1795                           
  1796                           ; BSR set to: 15
  1797                           ;can\CANlib.h: 435: TXB1D2 = data[2];
  1798  001116  0100               	movlb	0	; () banked
  1799  001118  EE20 F002          	lfsr	2,2
  1800  00111C  5177               	movf	CANsendMessage@data& (0+255),w,b
  1801  00111E  26D9               	addwf	fsr2l,f,c
  1802  001120  5178               	movf	(CANsendMessage@data+1)& (0+255),w,b
  1803  001122  22DA               	addwfc	fsr2h,f,c
  1804  001124  50DF               	movf	indf2,w,c
  1805  001126  010F               	movlb	15	; () banked
  1806  001128  6F38               	movwf	56,b	;volatile
  1807                           
  1808                           ; BSR set to: 15
  1809                           ;can\CANlib.h: 436: TXB1D3 = data[3];
  1810  00112A  0100               	movlb	0	; () banked
  1811  00112C  EE20 F003          	lfsr	2,3
  1812  001130  5177               	movf	CANsendMessage@data& (0+255),w,b
  1813  001132  26D9               	addwf	fsr2l,f,c
  1814  001134  5178               	movf	(CANsendMessage@data+1)& (0+255),w,b
  1815  001136  22DA               	addwfc	fsr2h,f,c
  1816  001138  50DF               	movf	indf2,w,c
  1817  00113A  010F               	movlb	15	; () banked
  1818  00113C  6F39               	movwf	57,b	;volatile
  1819                           
  1820                           ; BSR set to: 15
  1821                           ;can\CANlib.h: 437: TXB1D4 = data[4];
  1822  00113E  0100               	movlb	0	; () banked
  1823  001140  EE20 F004          	lfsr	2,4
  1824  001144  5177               	movf	CANsendMessage@data& (0+255),w,b
  1825  001146  26D9               	addwf	fsr2l,f,c
  1826  001148  5178               	movf	(CANsendMessage@data+1)& (0+255),w,b
  1827  00114A  22DA               	addwfc	fsr2h,f,c
  1828  00114C  50DF               	movf	indf2,w,c
  1829  00114E  010F               	movlb	15	; () banked
  1830  001150  6F3A               	movwf	58,b	;volatile
  1831                           
  1832                           ; BSR set to: 15
  1833                           ;can\CANlib.h: 438: TXB1D5 = data[5];
  1834  001152  0100               	movlb	0	; () banked
  1835  001154  EE20 F005          	lfsr	2,5
  1836  001158  5177               	movf	CANsendMessage@data& (0+255),w,b
  1837  00115A  26D9               	addwf	fsr2l,f,c
  1838  00115C  5178               	movf	(CANsendMessage@data+1)& (0+255),w,b
  1839  00115E  22DA               	addwfc	fsr2h,f,c
  1840  001160  50DF               	movf	indf2,w,c
  1841  001162  010F               	movlb	15	; () banked
  1842  001164  6F3B               	movwf	59,b	;volatile
  1843                           
  1844                           ; BSR set to: 15
  1845                           ;can\CANlib.h: 439: TXB1D6 = data[6];
  1846  001166  0100               	movlb	0	; () banked
  1847  001168  EE20 F006          	lfsr	2,6
  1848  00116C  5177               	movf	CANsendMessage@data& (0+255),w,b
  1849  00116E  26D9               	addwf	fsr2l,f,c
  1850  001170  5178               	movf	(CANsendMessage@data+1)& (0+255),w,b
  1851  001172  22DA               	addwfc	fsr2h,f,c
  1852  001174  50DF               	movf	indf2,w,c
  1853  001176  010F               	movlb	15	; () banked
  1854  001178  6F3C               	movwf	60,b	;volatile
  1855                           
  1856                           ; BSR set to: 15
  1857                           ;can\CANlib.h: 440: TXB1D7 = data[7];
  1858  00117A  0100               	movlb	0	; () banked
  1859  00117C  EE20 F007          	lfsr	2,7
  1860  001180  5177               	movf	CANsendMessage@data& (0+255),w,b
  1861  001182  26D9               	addwf	fsr2l,f,c
  1862  001184  5178               	movf	(CANsendMessage@data+1)& (0+255),w,b
  1863  001186  22DA               	addwfc	fsr2h,f,c
  1864  001188  50DF               	movf	indf2,w,c
  1865  00118A  010F               	movlb	15	; () banked
  1866  00118C  6F3D               	movwf	61,b	;volatile
  1867                           
  1868                           ; BSR set to: 15
  1869                           ;can\CANlib.h: 442: TXB1CONbits.TXREQ = 0x01;
  1870  00118E  010F               	movlb	15	; () banked
  1871  001190  8730               	bsf	48,3,b	;volatile
  1872                           
  1873                           ; BSR set to: 15
  1874                           ;can\CANlib.h: 444: return;
  1875  001192  0012               	return	
  1876  001194                     l354:
  1877                           
  1878                           ; BSR set to: 15
  1879                           ;can\CANlib.h: 445: }
  1880                           ;can\CANlib.h: 449: if (TXB2CONbits.TXREQ == 0)
  1881  001194  010F               	movlb	15	; () banked
  1882  001196  B720               	btfsc	32,3,b	;volatile
  1883  001198  0012               	return	
  1884                           
  1885                           ; BSR set to: 15
  1886                           ;can\CANlib.h: 450: { TXB2DLC = dataLength;
  1887  00119A  C079  FF25         	movff	CANsendMessage@dataLength,3877	;volatile
  1888                           
  1889                           ;can\CANlib.h: 452: if (0b01000000 & flags)
  1890  00119E  0100               	movlb	0	; () banked
  1891  0011A0  AD7A               	btfss	CANsendMessage@flags& (0+255),6,b
  1892  0011A2  D003               	goto	l369
  1893                           
  1894                           ; BSR set to: 0
  1895                           ;can\CANlib.h: 453: TXB2DLCbits.TXRTR = 0x01;
  1896  0011A4  010F               	movlb	15	; () banked
  1897  0011A6  8D25               	bsf	37,6,b	;volatile
  1898  0011A8  D002               	goto	l370
  1899  0011AA                     l369:
  1900                           
  1901                           ; BSR set to: 0
  1902                           ;can\CANlib.h: 454: else
  1903                           ;can\CANlib.h: 455: TXB2DLCbits.TXRTR = 0x00;
  1904  0011AA  010F               	movlb	15	; () banked
  1905  0011AC  9D25               	bcf	37,6,b	;volatile
  1906  0011AE                     l370:
  1907                           
  1908                           ; BSR set to: 15
  1909                           ;can\CANlib.h: 457: if (CAN_TX_FRAME_MASK & flags)
  1910  0011AE  0100               	movlb	0	; () banked
  1911  0011B0  A77A               	btfss	CANsendMessage@flags& (0+255),3,b
  1912  0011B2  D079               	goto	l371
  1913                           
  1914                           ; BSR set to: 0
  1915                           ;can\CANlib.h: 458: {
  1916                           ;can\CANlib.h: 459: tamp = identifier & 0x000000FF;
  1917  0011B4  0100               	movlb	0	; () banked
  1918  0011B6  5173               	movf	CANsendMessage@identifier& (0+255),w,b
  1919  0011B8  0100               	movlb	0	; () banked
  1920  0011BA  6F7F               	movwf	CANsendMessage@tamp& (0+255),b
  1921  0011BC  6B80               	clrf	(CANsendMessage@tamp+1)& (0+255),b
  1922  0011BE  6B81               	clrf	(CANsendMessage@tamp+2)& (0+255),b
  1923  0011C0  6B82               	clrf	(CANsendMessage@tamp+3)& (0+255),b
  1924                           
  1925                           ; BSR set to: 0
  1926                           ;can\CANlib.h: 460: TXB2EIDL = (unsigned char) tamp;
  1927  0011C2  C07F  FF24         	movff	CANsendMessage@tamp,3876	;volatile
  1928                           
  1929                           ; BSR set to: 0
  1930                           ;can\CANlib.h: 462: tamp = identifier & 0x0000FF00;
  1931  0011C6  0E00               	movlw	0
  1932  0011C8  0100               	movlb	0	; () banked
  1933  0011CA  1573               	andwf	CANsendMessage@identifier& (0+255),w,b
  1934  0011CC  0100               	movlb	0	; () banked
  1935  0011CE  6F7F               	movwf	CANsendMessage@tamp& (0+255),b
  1936  0011D0  0EFF               	movlw	255
  1937  0011D2  0100               	movlb	0	; () banked
  1938  0011D4  1574               	andwf	(CANsendMessage@identifier+1)& (0+255),w,b
  1939  0011D6  0100               	movlb	0	; () banked
  1940  0011D8  6F80               	movwf	(CANsendMessage@tamp+1)& (0+255),b
  1941  0011DA  0E00               	movlw	0
  1942  0011DC  0100               	movlb	0	; () banked
  1943  0011DE  1575               	andwf	(CANsendMessage@identifier+2)& (0+255),w,b
  1944  0011E0  0100               	movlb	0	; () banked
  1945  0011E2  6F81               	movwf	(CANsendMessage@tamp+2)& (0+255),b
  1946  0011E4  0E00               	movlw	0
  1947  0011E6  0100               	movlb	0	; () banked
  1948  0011E8  1576               	andwf	(CANsendMessage@identifier+3)& (0+255),w,b
  1949  0011EA  0100               	movlb	0	; () banked
  1950  0011EC  6F82               	movwf	(CANsendMessage@tamp+3)& (0+255),b
  1951                           
  1952                           ; BSR set to: 0
  1953                           ;can\CANlib.h: 463: tamp = tamp >> 8;
  1954  0011EE  C07F  F07B         	movff	CANsendMessage@tamp,??_CANsendMessage
  1955  0011F2  C080  F07C         	movff	CANsendMessage@tamp+1,??_CANsendMessage+1
  1956  0011F6  C081  F07D         	movff	CANsendMessage@tamp+2,??_CANsendMessage+2
  1957  0011FA  C082  F07E         	movff	CANsendMessage@tamp+3,??_CANsendMessage+3
  1958  0011FE  C07C  F07B         	movff	??_CANsendMessage+1,??_CANsendMessage
  1959  001202  C07D  F07C         	movff	??_CANsendMessage+2,??_CANsendMessage+1
  1960  001206  C07E  F07D         	movff	??_CANsendMessage+3,??_CANsendMessage+2
  1961  00120A  0100               	movlb	0	; () banked
  1962  00120C  6B7E               	clrf	(??_CANsendMessage+3)& (0+255),b
  1963  00120E  C07B  F07F         	movff	??_CANsendMessage,CANsendMessage@tamp
  1964  001212  C07C  F080         	movff	??_CANsendMessage+1,CANsendMessage@tamp+1
  1965  001216  C07D  F081         	movff	??_CANsendMessage+2,CANsendMessage@tamp+2
  1966  00121A  C07E  F082         	movff	??_CANsendMessage+3,CANsendMessage@tamp+3
  1967                           
  1968                           ; BSR set to: 0
  1969                           ;can\CANlib.h: 464: TXB2EIDH = (unsigned char) tamp;
  1970  00121E  C07F  FF23         	movff	CANsendMessage@tamp,3875	;volatile
  1971                           
  1972                           ; BSR set to: 0
  1973                           ;can\CANlib.h: 466: TXB2SIDL = 0x00;
  1974  001222  0E00               	movlw	0
  1975  001224  010F               	movlb	15	; () banked
  1976  001226  6F22               	movwf	34,b	;volatile
  1977                           
  1978                           ; BSR set to: 15
  1979                           ;can\CANlib.h: 467: TXB2SIDLbits.EXIDE = 0x01;
  1980  001228  010F               	movlb	15	; () banked
  1981  00122A  8722               	bsf	34,3,b	;volatile
  1982                           
  1983                           ; BSR set to: 15
  1984                           ;can\CANlib.h: 469: if (identifier & 0x00010000)
  1985  00122C  0100               	movlb	0	; () banked
  1986  00122E  A175               	btfss	(CANsendMessage@identifier+2)& (0+255),0,b
  1987  001230  D002               	goto	l372
  1988                           
  1989                           ; BSR set to: 0
  1990                           ;can\CANlib.h: 470: TXB2SIDLbits.EID16 = 0x01;
  1991  001232  010F               	movlb	15	; () banked
  1992  001234  8122               	bsf	34,0,b	;volatile
  1993  001236                     l372:
  1994                           
  1995                           ;can\CANlib.h: 471: if (identifier & 0x00020000)
  1996  001236  0100               	movlb	0	; () banked
  1997  001238  A375               	btfss	(CANsendMessage@identifier+2)& (0+255),1,b
  1998  00123A  D002               	goto	l373
  1999                           
  2000                           ; BSR set to: 0
  2001                           ;can\CANlib.h: 472: TXB2SIDLbits.EID17 = 0x01;
  2002  00123C  010F               	movlb	15	; () banked
  2003  00123E  8322               	bsf	34,1,b	;volatile
  2004  001240                     l373:
  2005                           
  2006                           ;can\CANlib.h: 473: if (identifier & 0x00040000)
  2007  001240  0100               	movlb	0	; () banked
  2008  001242  A575               	btfss	(CANsendMessage@identifier+2)& (0+255),2,b
  2009  001244  D002               	goto	l374
  2010                           
  2011                           ; BSR set to: 0
  2012                           ;can\CANlib.h: 474: TXB2SIDLbits.SID0 = 0x01;
  2013  001246  010F               	movlb	15	; () banked
  2014  001248  8B22               	bsf	34,5,b	;volatile
  2015  00124A                     l374:
  2016                           
  2017                           ;can\CANlib.h: 475: if (identifier & 0x00080000)
  2018  00124A  0100               	movlb	0	; () banked
  2019  00124C  A775               	btfss	(CANsendMessage@identifier+2)& (0+255),3,b
  2020  00124E  D002               	goto	l375
  2021                           
  2022                           ; BSR set to: 0
  2023                           ;can\CANlib.h: 476: TXB2SIDLbits.SID1 = 0x01;
  2024  001250  010F               	movlb	15	; () banked
  2025  001252  8D22               	bsf	34,6,b	;volatile
  2026  001254                     l375:
  2027                           
  2028                           ;can\CANlib.h: 477: if (identifier & 0x00100000)
  2029  001254  0100               	movlb	0	; () banked
  2030  001256  A975               	btfss	(CANsendMessage@identifier+2)& (0+255),4,b
  2031  001258  D002               	goto	l3247
  2032                           
  2033                           ; BSR set to: 0
  2034                           ;can\CANlib.h: 478: TXB2SIDLbits.SID2 = 0x01;
  2035  00125A  010F               	movlb	15	; () banked
  2036  00125C  8F22               	bsf	34,7,b	;volatile
  2037  00125E                     l3247:
  2038                           
  2039                           ;can\CANlib.h: 480: tamp = (identifier >> 21);
  2040  00125E  C073  F07B         	movff	CANsendMessage@identifier,??_CANsendMessage
  2041  001262  C074  F07C         	movff	CANsendMessage@identifier+1,??_CANsendMessage+1
  2042  001266  C075  F07D         	movff	CANsendMessage@identifier+2,??_CANsendMessage+2
  2043  00126A  C076  F07E         	movff	CANsendMessage@identifier+3,??_CANsendMessage+3
  2044  00126E  0E16               	movlw	22
  2045  001270  D006               	goto	u3730
  2046  001272                     u3735:
  2047  001272  0100               	movlb	0	; () banked
  2048  001274  90D8               	bcf	status,0,c
  2049  001276  337E               	rrcf	(??_CANsendMessage+3)& (0+255),f,b
  2050  001278  337D               	rrcf	(??_CANsendMessage+2)& (0+255),f,b
  2051  00127A  337C               	rrcf	(??_CANsendMessage+1)& (0+255),f,b
  2052  00127C  337B               	rrcf	??_CANsendMessage& (0+255),f,b
  2053  00127E                     u3730:
  2054  00127E  2EE8               	decfsz	wreg,f,c
  2055  001280  D7F8               	goto	u3735
  2056  001282  C07B  F07F         	movff	??_CANsendMessage,CANsendMessage@tamp
  2057  001286  C07C  F080         	movff	??_CANsendMessage+1,CANsendMessage@tamp+1
  2058  00128A  C07D  F081         	movff	??_CANsendMessage+2,CANsendMessage@tamp+2
  2059  00128E  C07E  F082         	movff	??_CANsendMessage+3,CANsendMessage@tamp+3
  2060                           
  2061                           ; BSR set to: 0
  2062                           ;can\CANlib.h: 481: tamp = tamp & 0x000000FF;
  2063  001292  0100               	movlb	0	; () banked
  2064  001294  517F               	movf	CANsendMessage@tamp& (0+255),w,b
  2065  001296  0100               	movlb	0	; () banked
  2066  001298  6F7F               	movwf	CANsendMessage@tamp& (0+255),b
  2067  00129A  6B80               	clrf	(CANsendMessage@tamp+1)& (0+255),b
  2068  00129C  6B81               	clrf	(CANsendMessage@tamp+2)& (0+255),b
  2069  00129E  6B82               	clrf	(CANsendMessage@tamp+3)& (0+255),b
  2070                           
  2071                           ; BSR set to: 0
  2072                           ;can\CANlib.h: 482: TXB2SIDH = (unsigned char) tamp;
  2073  0012A0  C07F  FF21         	movff	CANsendMessage@tamp,3873	;volatile
  2074                           
  2075                           ;can\CANlib.h: 483: }
  2076  0012A4  D059               	goto	l3267
  2077  0012A6                     l371:
  2078                           
  2079                           ; BSR set to: 0
  2080                           ;can\CANlib.h: 485: else
  2081                           ;can\CANlib.h: 487: {
  2082                           ;can\CANlib.h: 488: TXB2SIDLbits.EXIDE = 0x00;
  2083  0012A6  010F               	movlb	15	; () banked
  2084  0012A8  9722               	bcf	34,3,b	;volatile
  2085                           
  2086                           ; BSR set to: 15
  2087                           ;can\CANlib.h: 490: tamp = (identifier >> 3);
  2088  0012AA  C073  F07B         	movff	CANsendMessage@identifier,??_CANsendMessage
  2089  0012AE  C074  F07C         	movff	CANsendMessage@identifier+1,??_CANsendMessage+1
  2090  0012B2  C075  F07D         	movff	CANsendMessage@identifier+2,??_CANsendMessage+2
  2091  0012B6  C076  F07E         	movff	CANsendMessage@identifier+3,??_CANsendMessage+3
  2092  0012BA  0E04               	movlw	4
  2093  0012BC  D006               	goto	u3740
  2094  0012BE                     u3745:
  2095  0012BE  0100               	movlb	0	; () banked
  2096  0012C0  90D8               	bcf	status,0,c
  2097  0012C2  337E               	rrcf	(??_CANsendMessage+3)& (0+255),f,b
  2098  0012C4  337D               	rrcf	(??_CANsendMessage+2)& (0+255),f,b
  2099  0012C6  337C               	rrcf	(??_CANsendMessage+1)& (0+255),f,b
  2100  0012C8  337B               	rrcf	??_CANsendMessage& (0+255),f,b
  2101  0012CA                     u3740:
  2102  0012CA  2EE8               	decfsz	wreg,f,c
  2103  0012CC  D7F8               	goto	u3745
  2104  0012CE  C07B  F07F         	movff	??_CANsendMessage,CANsendMessage@tamp
  2105  0012D2  C07C  F080         	movff	??_CANsendMessage+1,CANsendMessage@tamp+1
  2106  0012D6  C07D  F081         	movff	??_CANsendMessage+2,CANsendMessage@tamp+2
  2107  0012DA  C07E  F082         	movff	??_CANsendMessage+3,CANsendMessage@tamp+3
  2108                           
  2109                           ; BSR set to: 0
  2110                           ;can\CANlib.h: 491: tamp = tamp & 0x000000FF;
  2111  0012DE  0100               	movlb	0	; () banked
  2112  0012E0  517F               	movf	CANsendMessage@tamp& (0+255),w,b
  2113  0012E2  0100               	movlb	0	; () banked
  2114  0012E4  6F7F               	movwf	CANsendMessage@tamp& (0+255),b
  2115  0012E6  6B80               	clrf	(CANsendMessage@tamp+1)& (0+255),b
  2116  0012E8  6B81               	clrf	(CANsendMessage@tamp+2)& (0+255),b
  2117  0012EA  6B82               	clrf	(CANsendMessage@tamp+3)& (0+255),b
  2118                           
  2119                           ; BSR set to: 0
  2120                           ;can\CANlib.h: 492: TXB2SIDH = (unsigned char) tamp;
  2121  0012EC  C07F  FF21         	movff	CANsendMessage@tamp,3873	;volatile
  2122                           
  2123                           ; BSR set to: 0
  2124                           ;can\CANlib.h: 494: tamp = identifier & 0x00000007;
  2125  0012F0  0E07               	movlw	7
  2126  0012F2  0100               	movlb	0	; () banked
  2127  0012F4  1573               	andwf	CANsendMessage@identifier& (0+255),w,b
  2128  0012F6  0100               	movlb	0	; () banked
  2129  0012F8  6F7F               	movwf	CANsendMessage@tamp& (0+255),b
  2130  0012FA  0E00               	movlw	0
  2131  0012FC  0100               	movlb	0	; () banked
  2132  0012FE  1574               	andwf	(CANsendMessage@identifier+1)& (0+255),w,b
  2133  001300  0100               	movlb	0	; () banked
  2134  001302  6F80               	movwf	(CANsendMessage@tamp+1)& (0+255),b
  2135  001304  0E00               	movlw	0
  2136  001306  0100               	movlb	0	; () banked
  2137  001308  1575               	andwf	(CANsendMessage@identifier+2)& (0+255),w,b
  2138  00130A  0100               	movlb	0	; () banked
  2139  00130C  6F81               	movwf	(CANsendMessage@tamp+2)& (0+255),b
  2140  00130E  0E00               	movlw	0
  2141  001310  0100               	movlb	0	; () banked
  2142  001312  1576               	andwf	(CANsendMessage@identifier+3)& (0+255),w,b
  2143  001314  0100               	movlb	0	; () banked
  2144  001316  6F82               	movwf	(CANsendMessage@tamp+3)& (0+255),b
  2145                           
  2146                           ; BSR set to: 0
  2147                           ;can\CANlib.h: 495: tamp = tamp << 5;
  2148  001318  C07F  F07B         	movff	CANsendMessage@tamp,??_CANsendMessage
  2149  00131C  C080  F07C         	movff	CANsendMessage@tamp+1,??_CANsendMessage+1
  2150  001320  C081  F07D         	movff	CANsendMessage@tamp+2,??_CANsendMessage+2
  2151  001324  C082  F07E         	movff	CANsendMessage@tamp+3,??_CANsendMessage+3
  2152  001328  0E05               	movlw	5
  2153  00132A                     u3755:
  2154  00132A  90D8               	bcf	status,0,c
  2155  00132C  0100               	movlb	0	; () banked
  2156  00132E  377B               	rlcf	??_CANsendMessage& (0+255),f,b
  2157  001330  377C               	rlcf	(??_CANsendMessage+1)& (0+255),f,b
  2158  001332  377D               	rlcf	(??_CANsendMessage+2)& (0+255),f,b
  2159  001334  377E               	rlcf	(??_CANsendMessage+3)& (0+255),f,b
  2160  001336  2EE8               	decfsz	wreg,f,c
  2161  001338  D7F8               	goto	u3755
  2162  00133A  C07B  F07F         	movff	??_CANsendMessage,CANsendMessage@tamp
  2163  00133E  C07C  F080         	movff	??_CANsendMessage+1,CANsendMessage@tamp+1
  2164  001342  C07D  F081         	movff	??_CANsendMessage+2,CANsendMessage@tamp+2
  2165  001346  C07E  F082         	movff	??_CANsendMessage+3,CANsendMessage@tamp+3
  2166                           
  2167                           ; BSR set to: 0
  2168                           ;can\CANlib.h: 496: TXB2SIDL = TXB2SIDL & 0b00011111;
  2169  00134A  010F               	movlb	15	; () banked
  2170  00134C  5122               	movf	34,w,b	;volatile
  2171  00134E  0B1F               	andlw	31
  2172  001350  010F               	movlb	15	; () banked
  2173  001352  6F22               	movwf	34,b	;volatile
  2174                           
  2175                           ; BSR set to: 15
  2176                           ;can\CANlib.h: 497: TXB2SIDL = (unsigned char) tamp;
  2177  001354  C07F  FF22         	movff	CANsendMessage@tamp,3874	;volatile
  2178  001358                     l3267:
  2179                           
  2180                           ;can\CANlib.h: 498: }
  2181                           ;can\CANlib.h: 500: if (0b00000001 & flags)
  2182  001358  0100               	movlb	0	; () banked
  2183  00135A  A17A               	btfss	CANsendMessage@flags& (0+255),0,b
  2184  00135C  D003               	goto	l378
  2185                           
  2186                           ; BSR set to: 0
  2187                           ;can\CANlib.h: 501: TXB2CONbits.TXPRI0 = 0x01;
  2188  00135E  010F               	movlb	15	; () banked
  2189  001360  8120               	bsf	32,0,b	;volatile
  2190  001362  D002               	goto	l379
  2191  001364                     l378:
  2192                           
  2193                           ; BSR set to: 0
  2194                           ;can\CANlib.h: 502: else
  2195                           ;can\CANlib.h: 503: TXB2CONbits.TXPRI0 = 0x00;
  2196  001364  010F               	movlb	15	; () banked
  2197  001366  9120               	bcf	32,0,b	;volatile
  2198  001368                     l379:
  2199                           
  2200                           ; BSR set to: 15
  2201                           ;can\CANlib.h: 504: if (0b00000010 & flags)
  2202  001368  0100               	movlb	0	; () banked
  2203  00136A  A37A               	btfss	CANsendMessage@flags& (0+255),1,b
  2204  00136C  D003               	goto	l380
  2205                           
  2206                           ; BSR set to: 0
  2207                           ;can\CANlib.h: 505: TXB2CONbits.TXPRI1 = 0x01;
  2208  00136E  010F               	movlb	15	; () banked
  2209  001370  8320               	bsf	32,1,b	;volatile
  2210  001372  D002               	goto	l3273
  2211  001374                     l380:
  2212                           
  2213                           ; BSR set to: 0
  2214                           ;can\CANlib.h: 506: else
  2215                           ;can\CANlib.h: 507: TXB2CONbits.TXPRI1 = 0x00;
  2216  001374  010F               	movlb	15	; () banked
  2217  001376  9320               	bcf	32,1,b	;volatile
  2218  001378                     l3273:
  2219                           
  2220                           ; BSR set to: 15
  2221                           ;can\CANlib.h: 509: TXB2D0 = data[0];
  2222  001378  C077  FFD9         	movff	CANsendMessage@data,fsr2l
  2223  00137C  C078  FFDA         	movff	CANsendMessage@data+1,fsr2h
  2224  001380  50DF               	movf	indf2,w,c
  2225  001382  010F               	movlb	15	; () banked
  2226  001384  6F26               	movwf	38,b	;volatile
  2227                           
  2228                           ; BSR set to: 15
  2229                           ;can\CANlib.h: 510: TXB2D1 = data[1];
  2230  001386  0100               	movlb	0	; () banked
  2231  001388  EE20 F001          	lfsr	2,1
  2232  00138C  5177               	movf	CANsendMessage@data& (0+255),w,b
  2233  00138E  26D9               	addwf	fsr2l,f,c
  2234  001390  5178               	movf	(CANsendMessage@data+1)& (0+255),w,b
  2235  001392  22DA               	addwfc	fsr2h,f,c
  2236  001394  50DF               	movf	indf2,w,c
  2237  001396  010F               	movlb	15	; () banked
  2238  001398  6F27               	movwf	39,b	;volatile
  2239                           
  2240                           ; BSR set to: 15
  2241                           ;can\CANlib.h: 511: TXB2D2 = data[2];
  2242  00139A  0100               	movlb	0	; () banked
  2243  00139C  EE20 F002          	lfsr	2,2
  2244  0013A0  5177               	movf	CANsendMessage@data& (0+255),w,b
  2245  0013A2  26D9               	addwf	fsr2l,f,c
  2246  0013A4  5178               	movf	(CANsendMessage@data+1)& (0+255),w,b
  2247  0013A6  22DA               	addwfc	fsr2h,f,c
  2248  0013A8  50DF               	movf	indf2,w,c
  2249  0013AA  010F               	movlb	15	; () banked
  2250  0013AC  6F28               	movwf	40,b	;volatile
  2251                           
  2252                           ; BSR set to: 15
  2253                           ;can\CANlib.h: 512: TXB2D3 = data[3];
  2254  0013AE  0100               	movlb	0	; () banked
  2255  0013B0  EE20 F003          	lfsr	2,3
  2256  0013B4  5177               	movf	CANsendMessage@data& (0+255),w,b
  2257  0013B6  26D9               	addwf	fsr2l,f,c
  2258  0013B8  5178               	movf	(CANsendMessage@data+1)& (0+255),w,b
  2259  0013BA  22DA               	addwfc	fsr2h,f,c
  2260  0013BC  50DF               	movf	indf2,w,c
  2261  0013BE  010F               	movlb	15	; () banked
  2262  0013C0  6F29               	movwf	41,b	;volatile
  2263                           
  2264                           ; BSR set to: 15
  2265                           ;can\CANlib.h: 513: TXB2D4 = data[4];
  2266  0013C2  0100               	movlb	0	; () banked
  2267  0013C4  EE20 F004          	lfsr	2,4
  2268  0013C8  5177               	movf	CANsendMessage@data& (0+255),w,b
  2269  0013CA  26D9               	addwf	fsr2l,f,c
  2270  0013CC  5178               	movf	(CANsendMessage@data+1)& (0+255),w,b
  2271  0013CE  22DA               	addwfc	fsr2h,f,c
  2272  0013D0  50DF               	movf	indf2,w,c
  2273  0013D2  010F               	movlb	15	; () banked
  2274  0013D4  6F2A               	movwf	42,b	;volatile
  2275                           
  2276                           ; BSR set to: 15
  2277                           ;can\CANlib.h: 514: TXB2D5 = data[5];
  2278  0013D6  0100               	movlb	0	; () banked
  2279  0013D8  EE20 F005          	lfsr	2,5
  2280  0013DC  5177               	movf	CANsendMessage@data& (0+255),w,b
  2281  0013DE  26D9               	addwf	fsr2l,f,c
  2282  0013E0  5178               	movf	(CANsendMessage@data+1)& (0+255),w,b
  2283  0013E2  22DA               	addwfc	fsr2h,f,c
  2284  0013E4  50DF               	movf	indf2,w,c
  2285  0013E6  010F               	movlb	15	; () banked
  2286  0013E8  6F2B               	movwf	43,b	;volatile
  2287                           
  2288                           ; BSR set to: 15
  2289                           ;can\CANlib.h: 515: TXB2D6 = data[6];
  2290  0013EA  0100               	movlb	0	; () banked
  2291  0013EC  EE20 F006          	lfsr	2,6
  2292  0013F0  5177               	movf	CANsendMessage@data& (0+255),w,b
  2293  0013F2  26D9               	addwf	fsr2l,f,c
  2294  0013F4  5178               	movf	(CANsendMessage@data+1)& (0+255),w,b
  2295  0013F6  22DA               	addwfc	fsr2h,f,c
  2296  0013F8  50DF               	movf	indf2,w,c
  2297  0013FA  010F               	movlb	15	; () banked
  2298  0013FC  6F2C               	movwf	44,b	;volatile
  2299                           
  2300                           ; BSR set to: 15
  2301                           ;can\CANlib.h: 516: TXB2D7 = data[7];
  2302  0013FE  0100               	movlb	0	; () banked
  2303  001400  EE20 F007          	lfsr	2,7
  2304  001404  5177               	movf	CANsendMessage@data& (0+255),w,b
  2305  001406  26D9               	addwf	fsr2l,f,c
  2306  001408  5178               	movf	(CANsendMessage@data+1)& (0+255),w,b
  2307  00140A  22DA               	addwfc	fsr2h,f,c
  2308  00140C  50DF               	movf	indf2,w,c
  2309  00140E  010F               	movlb	15	; () banked
  2310  001410  6F2D               	movwf	45,b	;volatile
  2311                           
  2312                           ; BSR set to: 15
  2313                           ;can\CANlib.h: 518: TXB2CONbits.TXREQ = 0x01;
  2314  001412  010F               	movlb	15	; () banked
  2315  001414  8720               	bsf	32,3,b	;volatile
  2316                           
  2317                           ; BSR set to: 15
  2318                           ;can\CANlib.h: 520: return;
  2319  001416  0012               	return	
  2320  001418                     __end_of_CANsendMessage:
  2321                           	opt stack 0
  2322                           tblptru	equ	0xFF8
  2323                           tblptrh	equ	0xFF7
  2324                           tblptrl	equ	0xFF6
  2325                           tablat	equ	0xFF5
  2326                           postinc0	equ	0xFEE
  2327                           wreg	equ	0xFE8
  2328                           indf2	equ	0xFDF
  2329                           fsr2h	equ	0xFDA
  2330                           fsr2l	equ	0xFD9
  2331                           status	equ	0xFD8
  2332                           
  2333 ;; *************** function _CANisTxReady *****************
  2334 ;; Defined at:
  2335 ;;		line 1154 in file "../../Scuola/Triennio/Tesina/can\CANlib.h"
  2336 ;; Parameters:    Size  Location     Type
  2337 ;;		None
  2338 ;; Auto vars:     Size  Location     Type
  2339 ;;		None
  2340 ;; Return value:  Size  Location     Type
  2341 ;;                  1    wreg      unsigned char 
  2342 ;; Registers used:
  2343 ;;		wreg, status,2
  2344 ;; Tracked objects:
  2345 ;;		On entry : 0/0
  2346 ;;		On exit  : 0/0
  2347 ;;		Unchanged: 0/0
  2348 ;; Data sizes:     COMRAM   BANK0   BANK1   BANK2
  2349 ;;      Params:         0       0       0       0
  2350 ;;      Locals:         0       1       0       0
  2351 ;;      Temps:          0       0       0       0
  2352 ;;      Totals:         0       1       0       0
  2353 ;;Total ram usage:        1 bytes
  2354 ;; Hardware stack levels used:    1
  2355 ;; Hardware stack levels required when called:    4
  2356 ;; This function calls:
  2357 ;;		Nothing
  2358 ;; This function is called by:
  2359 ;;		_send_data
  2360 ;; This function uses a non-reentrant model
  2361 ;;
  2362                           
  2363                           	psect	text3
  2364  002A3E                     __ptext3:
  2365                           	opt stack 0
  2366  002A3E                     _CANisTxReady:
  2367                           	opt stack 25
  2368                           
  2369                           ;can\CANlib.h: 1156: return (!TXB0CONbits.TXREQ || !TXB1CONbits.TXREQ || !TXB2CONbits.TX
      +                          REQ);
  2370                           
  2371                           ; BSR set to: 15
  2372                           ;incstack = 0
  2373  002A3E  0E01               	movlw	1
  2374  002A40  0100               	movlb	0	; () banked
  2375  002A42  6F73               	movwf	_CANisTxReady$2800& (0+255),b
  2376                           
  2377                           ; BSR set to: 0
  2378  002A44  010F               	movlb	15	; () banked
  2379  002A46  A740               	btfss	64,3,b	;volatile
  2380  002A48  D009               	goto	l532
  2381                           
  2382                           ; BSR set to: 15
  2383  002A4A  010F               	movlb	15	; () banked
  2384  002A4C  A730               	btfss	48,3,b	;volatile
  2385  002A4E  D006               	goto	l532
  2386                           
  2387                           ; BSR set to: 15
  2388  002A50  010F               	movlb	15	; () banked
  2389  002A52  A720               	btfss	32,3,b	;volatile
  2390  002A54  D003               	goto	l532
  2391                           
  2392                           ; BSR set to: 15
  2393  002A56  0E00               	movlw	0
  2394  002A58  0100               	movlb	0	; () banked
  2395  002A5A  6F73               	movwf	_CANisTxReady$2800& (0+255),b
  2396  002A5C                     l532:
  2397  002A5C  0100               	movlb	0	; () banked
  2398  002A5E  5173               	movf	_CANisTxReady$2800& (0+255),w,b
  2399  002A60  0012               	return	
  2400  002A62                     __end_of_CANisTxReady:
  2401                           	opt stack 0
  2402                           tblptru	equ	0xFF8
  2403                           tblptrh	equ	0xFF7
  2404                           tblptrl	equ	0xFF6
  2405                           tablat	equ	0xFF5
  2406                           postinc0	equ	0xFEE
  2407                           wreg	equ	0xFE8
  2408                           indf2	equ	0xFDF
  2409                           fsr2h	equ	0xFDA
  2410                           fsr2l	equ	0xFD9
  2411                           status	equ	0xFD8
  2412                           
  2413 ;; *************** function _delay_ms *****************
  2414 ;; Defined at:
  2415 ;;		line 61 in file "../../Scuola/Triennio/sistemi/4^/PIC/librerie/LaurTec_PIC_libraries_v_3.3.0/src\delay.c"
  2416 ;; Parameters:    Size  Location     Type
  2417 ;;  value_ms        2   25[BANK0 ] unsigned int 
  2418 ;; Auto vars:     Size  Location     Type
  2419 ;;		None
  2420 ;; Return value:  Size  Location     Type
  2421 ;;		None               void
  2422 ;; Registers used:
  2423 ;;		wreg, status,2, status,0, prodl, prodh, cstack
  2424 ;; Tracked objects:
  2425 ;;		On entry : 0/0
  2426 ;;		On exit  : 0/0
  2427 ;;		Unchanged: 0/0
  2428 ;; Data sizes:     COMRAM   BANK0   BANK1   BANK2
  2429 ;;      Params:         0       2       0       0
  2430 ;;      Locals:         0       0       0       0
  2431 ;;      Temps:          0       0       0       0
  2432 ;;      Totals:         0       2       0       0
  2433 ;;Total ram usage:        2 bytes
  2434 ;; Hardware stack levels used:    1
  2435 ;; Hardware stack levels required when called:    5
  2436 ;; This function calls:
  2437 ;;		___wmul
  2438 ;; This function is called by:
  2439 ;;		_main
  2440 ;;		_delay_s
  2441 ;; This function uses a non-reentrant model
  2442 ;;
  2443                           
  2444                           	psect	text4
  2445  0029A8                     __ptext4:
  2446                           	opt stack 0
  2447  0029A8                     _delay_ms:
  2448                           	opt stack 25
  2449                           
  2450                           ;src\delay.c: 73: clock_counter_reference = value_ms * delay_quartz_frequency_value;
  2451                           
  2452                           ; BSR set to: 0
  2453                           ;incstack = 0
  2454  0029A8  C0AC  F073         	movff	_delay_quartz_frequency_value,___wmul@multiplier	;volatile
  2455  0029AC  0100               	movlb	0	; () banked
  2456  0029AE  6B74               	clrf	(___wmul@multiplier+1)& (0+255),b
  2457  0029B0  C079  F075         	movff	delay_ms@value_ms,___wmul@multiplicand
  2458  0029B4  C07A  F076         	movff	delay_ms@value_ms+1,___wmul@multiplicand+1
  2459  0029B8  ECF1  F014         	call	___wmul	;wreg free
  2460  0029BC  C073  F0A9         	movff	?___wmul,_clock_counter_reference	;volatile
  2461  0029C0  C074  F0AA         	movff	?___wmul+1,_clock_counter_reference+1	;volatile
  2462                           
  2463                           ;src\delay.c: 75: while (clock_counter_reference) {
  2464  0029C4  D007               	goto	l545
  2465  0029C6                     l3467:
  2466                           
  2467                           ;src\delay.c: 85: _delay(240);
  2468  0029C6  0E50               	movlw	80
  2469  0029C8                     u4797:
  2470  0029C8  2EE8               	decfsz	wreg,f,c
  2471  0029CA  D7FE               	goto	u4797
  2472                           
  2473                           ;src\delay.c: 88: clock_counter_reference--;
  2474  0029CC  0100               	movlb	0	; () banked
  2475  0029CE  07A9               	decf	_clock_counter_reference& (0+255),f,b	;volatile
  2476  0029D0  A0D8               	btfss	status,0,c
  2477  0029D2  07AA               	decf	(_clock_counter_reference+1)& (0+255),f,b	;volatile
  2478  0029D4                     l545:
  2479  0029D4  0100               	movlb	0	; () banked
  2480  0029D6  51A9               	movf	_clock_counter_reference& (0+255),w,b	;volatile
  2481  0029D8  0100               	movlb	0	; () banked
  2482  0029DA  11AA               	iorwf	(_clock_counter_reference+1)& (0+255),w,b	;volatile
  2483  0029DC  B4D8               	btfsc	status,2,c
  2484  0029DE  0012               	return	
  2485  0029E0  D7F2               	goto	l3467
  2486  0029E2                     __end_of_delay_ms:
  2487                           	opt stack 0
  2488                           tblptru	equ	0xFF8
  2489                           tblptrh	equ	0xFF7
  2490                           tblptrl	equ	0xFF6
  2491                           tablat	equ	0xFF5
  2492                           postinc0	equ	0xFEE
  2493                           wreg	equ	0xFE8
  2494                           indf2	equ	0xFDF
  2495                           fsr2h	equ	0xFDA
  2496                           fsr2l	equ	0xFD9
  2497                           status	equ	0xFD8
  2498                           
  2499 ;; *************** function ___wmul *****************
  2500 ;; Defined at:
  2501 ;;		line 15 in file "P:\Programmi\Microchip\xc8\v1.35\sources\common\Umul16.c"
  2502 ;; Parameters:    Size  Location     Type
  2503 ;;  multiplier      2   19[BANK0 ] unsigned int 
  2504 ;;  multiplicand    2   21[BANK0 ] unsigned int 
  2505 ;; Auto vars:     Size  Location     Type
  2506 ;;  product         2   23[BANK0 ] unsigned int 
  2507 ;; Return value:  Size  Location     Type
  2508 ;;                  2   19[BANK0 ] unsigned int 
  2509 ;; Registers used:
  2510 ;;		wreg, status,2, status,0, prodl, prodh
  2511 ;; Tracked objects:
  2512 ;;		On entry : 0/0
  2513 ;;		On exit  : 0/0
  2514 ;;		Unchanged: 0/0
  2515 ;; Data sizes:     COMRAM   BANK0   BANK1   BANK2
  2516 ;;      Params:         0       4       0       0
  2517 ;;      Locals:         0       2       0       0
  2518 ;;      Temps:          0       0       0       0
  2519 ;;      Totals:         0       6       0       0
  2520 ;;Total ram usage:        6 bytes
  2521 ;; Hardware stack levels used:    1
  2522 ;; Hardware stack levels required when called:    4
  2523 ;; This function calls:
  2524 ;;		Nothing
  2525 ;; This function is called by:
  2526 ;;		_delay_ms
  2527 ;; This function uses a non-reentrant model
  2528 ;;
  2529                           
  2530                           	psect	text5
  2531  0029E2                     __ptext5:
  2532                           	opt stack 0
  2533  0029E2                     ___wmul:
  2534                           	opt stack 25
  2535                           
  2536                           ; BSR set to: 0
  2537                           ;incstack = 0
  2538  0029E2  0100               	movlb	0	; () banked
  2539  0029E4  5173               	movf	___wmul@multiplier& (0+255),w,b
  2540  0029E6  0100               	movlb	0	; () banked
  2541  0029E8  0375               	mulwf	___wmul@multiplicand& (0+255),b
  2542  0029EA  CFF3 F077          	movff	prodl,___wmul@product
  2543  0029EE  CFF4 F078          	movff	prodh,___wmul@product+1
  2544  0029F2  0100               	movlb	0	; () banked
  2545  0029F4  5173               	movf	___wmul@multiplier& (0+255),w,b
  2546  0029F6  0100               	movlb	0	; () banked
  2547  0029F8  0376               	mulwf	(___wmul@multiplicand+1)& (0+255),b
  2548  0029FA  50F3               	movf	prodl,w,c
  2549  0029FC  0100               	movlb	0	; () banked
  2550  0029FE  2778               	addwf	(___wmul@product+1)& (0+255),f,b
  2551  002A00  0100               	movlb	0	; () banked
  2552  002A02  5174               	movf	(___wmul@multiplier+1)& (0+255),w,b
  2553  002A04  0100               	movlb	0	; () banked
  2554  002A06  0375               	mulwf	___wmul@multiplicand& (0+255),b
  2555  002A08  50F3               	movf	prodl,w,c
  2556  002A0A  0100               	movlb	0	; () banked
  2557  002A0C  2778               	addwf	(___wmul@product+1)& (0+255),f,b
  2558                           
  2559                           ; BSR set to: 0
  2560  002A0E  C077  F073         	movff	___wmul@product,?___wmul
  2561  002A12  C078  F074         	movff	___wmul@product+1,?___wmul+1
  2562  002A16  0012               	return	
  2563  002A18                     __end_of___wmul:
  2564                           	opt stack 0
  2565                           tblptru	equ	0xFF8
  2566                           tblptrh	equ	0xFF7
  2567                           tblptrl	equ	0xFF6
  2568                           tablat	equ	0xFF5
  2569                           prodh	equ	0xFF4
  2570                           prodl	equ	0xFF3
  2571                           postinc0	equ	0xFEE
  2572                           wreg	equ	0xFE8
  2573                           indf2	equ	0xFDF
  2574                           fsr2h	equ	0xFDA
  2575                           fsr2l	equ	0xFD9
  2576                           status	equ	0xFD8
  2577                           
  2578 ;; *************** function _configurazione_iniziale *****************
  2579 ;; Defined at:
  2580 ;;		line 174 in file "sterzo.c"
  2581 ;; Parameters:    Size  Location     Type
  2582 ;;		None
  2583 ;; Auto vars:     Size  Location     Type
  2584 ;;		None
  2585 ;; Return value:  Size  Location     Type
  2586 ;;		None               void
  2587 ;; Registers used:
  2588 ;;		wreg, status,2, status,0, cstack
  2589 ;; Tracked objects:
  2590 ;;		On entry : 0/0
  2591 ;;		On exit  : 0/0
  2592 ;;		Unchanged: 0/0
  2593 ;; Data sizes:     COMRAM   BANK0   BANK1   BANK2
  2594 ;;      Params:         0       0       0       0
  2595 ;;      Locals:         0       0       0       0
  2596 ;;      Temps:          0       0       0       0
  2597 ;;      Totals:         0       0       0       0
  2598 ;;Total ram usage:        0 bytes
  2599 ;; Hardware stack levels used:    1
  2600 ;; Hardware stack levels required when called:    6
  2601 ;; This function calls:
  2602 ;;		_CANInitialize
  2603 ;; This function is called by:
  2604 ;;		_main
  2605 ;; This function uses a non-reentrant model
  2606 ;;
  2607                           
  2608                           	psect	text6
  2609  002852                     __ptext6:
  2610                           	opt stack 0
  2611  002852                     _configurazione_iniziale:
  2612                           	opt stack 24
  2613                           
  2614                           ;sterzo.c: 179: RCONbits.IPEN = 1;
  2615                           
  2616                           ; BSR set to: 0
  2617                           ;incstack = 0
  2618  002852  8ED0               	bsf	4048,7,c	;volatile
  2619                           
  2620                           ;sterzo.c: 180: CANInitialize(4, 6, 5, 1, 3, CAN_CONFIG_LINE_FILTER_OFF & CAN_CONFIG_SAM
      +                          PLE_ONCE & CAN_CONFIG_ALL_VALID_MSG & CAN_CONFIG_DBL_BUFFER_ON);
  2621  002854  0E06               	movlw	6
  2622  002856  0100               	movlb	0	; () banked
  2623  002858  6F81               	movwf	CANInitialize@phaseSeg1& (0+255),b
  2624  00285A  0E05               	movlw	5
  2625  00285C  0100               	movlb	0	; () banked
  2626  00285E  6F82               	movwf	CANInitialize@phaseSeg2& (0+255),b
  2627  002860  0E01               	movlw	1
  2628  002862  0100               	movlb	0	; () banked
  2629  002864  6F83               	movwf	CANInitialize@SJW& (0+255),b
  2630  002866  0E03               	movlw	3
  2631  002868  0100               	movlb	0	; () banked
  2632  00286A  6F84               	movwf	CANInitialize@BRP& (0+255),b
  2633  00286C  0E9D               	movlw	157
  2634  00286E  0100               	movlb	0	; () banked
  2635  002870  6F85               	movwf	CANInitialize@flags& (0+255),b
  2636  002872  0E04               	movlw	4
  2637  002874  ECA9  F011         	call	_CANInitialize
  2638                           
  2639                           ;sterzo.c: 185: PIR3bits.RXB1IF = 0;
  2640  002878  92A4               	bcf	4004,1,c	;volatile
  2641                           
  2642                           ;sterzo.c: 186: PIR3bits.RXB0IF = 0;
  2643  00287A  90A4               	bcf	4004,0,c	;volatile
  2644                           
  2645                           ;sterzo.c: 187: INTCONbits.TMR0IF = 0;
  2646  00287C  94F2               	bcf	intcon,2,c	;volatile
  2647                           
  2648                           ;sterzo.c: 193: IPR3bits.RXB1IP = 0;
  2649  00287E  92A5               	bcf	4005,1,c	;volatile
  2650                           
  2651                           ;sterzo.c: 194: IPR3bits.RXB0IP = 0;
  2652  002880  90A5               	bcf	4005,0,c	;volatile
  2653                           
  2654                           ;sterzo.c: 195: INTCON2bits.TMR0IP = 1;
  2655  002882  84F1               	bsf	intcon2,2,c	;volatile
  2656                           
  2657                           ;sterzo.c: 201: RCONbits.IPEN = 1;
  2658  002884  8ED0               	bsf	4048,7,c	;volatile
  2659                           
  2660                           ;sterzo.c: 202: PIE3bits.RXB1IE = 1;
  2661  002886  82A3               	bsf	4003,1,c	;volatile
  2662                           
  2663                           ;sterzo.c: 203: PIE3bits.RXB0IE = 1;
  2664  002888  80A3               	bsf	4003,0,c	;volatile
  2665                           
  2666                           ;sterzo.c: 204: INTCONbits.TMR0IE = 1;
  2667  00288A  8AF2               	bsf	intcon,5,c	;volatile
  2668                           
  2669                           ;sterzo.c: 206: INTCONbits.GIEH = 1;
  2670  00288C  8EF2               	bsf	intcon,7,c	;volatile
  2671                           
  2672                           ;sterzo.c: 207: INTCONbits.GIEL = 1;
  2673  00288E  8CF2               	bsf	intcon,6,c	;volatile
  2674                           
  2675                           ;sterzo.c: 219: T0CONbits.TMR0ON = 1;
  2676  002890  8ED5               	bsf	4053,7,c	;volatile
  2677                           
  2678                           ;sterzo.c: 220: PORTCbits.RC0 = 0;
  2679  002892  9082               	bcf	3970,0,c	;volatile
  2680                           
  2681                           ;sterzo.c: 224: LATA = 0x00;
  2682  002894  0E00               	movlw	0
  2683  002896  6E89               	movwf	3977,c	;volatile
  2684                           
  2685                           ;sterzo.c: 225: TRISA = 0b11111101;
  2686  002898  0EFD               	movlw	253
  2687  00289A  6E92               	movwf	3986,c	;volatile
  2688                           
  2689                           ;sterzo.c: 227: LATB = 0x00;
  2690  00289C  0E00               	movlw	0
  2691  00289E  6E8A               	movwf	3978,c	;volatile
  2692                           
  2693                           ;sterzo.c: 228: TRISB = 0b11111011;
  2694  0028A0  0EFB               	movlw	251
  2695  0028A2  6E93               	movwf	3987,c	;volatile
  2696                           
  2697                           ;sterzo.c: 230: LATC = 0x00;
  2698  0028A4  0E00               	movlw	0
  2699  0028A6  6E8B               	movwf	3979,c	;volatile
  2700                           
  2701                           ;sterzo.c: 231: TRISC = 0x00;
  2702  0028A8  0E00               	movlw	0
  2703  0028AA  6E94               	movwf	3988,c	;volatile
  2704                           
  2705                           ;sterzo.c: 233: LATD = 0x00;
  2706  0028AC  0E00               	movlw	0
  2707  0028AE  6E8C               	movwf	3980,c	;volatile
  2708                           
  2709                           ;sterzo.c: 234: TRISD = 0x00;
  2710  0028B0  0E00               	movlw	0
  2711  0028B2  6E95               	movwf	3989,c	;volatile
  2712                           
  2713                           ;sterzo.c: 236: LATE = 0x00;
  2714  0028B4  0E00               	movlw	0
  2715  0028B6  6E8D               	movwf	3981,c	;volatile
  2716                           
  2717                           ;sterzo.c: 237: TRISE = 0xFF;
  2718  0028B8  6896               	setf	3990,c	;volatile
  2719                           
  2720                           ;sterzo.c: 238: T0CON = 0x80;
  2721  0028BA  0E80               	movlw	128
  2722  0028BC  6ED5               	movwf	4053,c	;volatile
  2723  0028BE  0012               	return		;funcret
  2724  0028C0                     __end_of_configurazione_iniziale:
  2725                           	opt stack 0
  2726                           tblptru	equ	0xFF8
  2727                           tblptrh	equ	0xFF7
  2728                           tblptrl	equ	0xFF6
  2729                           tablat	equ	0xFF5
  2730                           prodh	equ	0xFF4
  2731                           prodl	equ	0xFF3
  2732                           intcon	equ	0xFF2
  2733                           intcon2	equ	0xFF1
  2734                           postinc0	equ	0xFEE
  2735                           wreg	equ	0xFE8
  2736                           indf2	equ	0xFDF
  2737                           fsr2h	equ	0xFDA
  2738                           fsr2l	equ	0xFD9
  2739                           status	equ	0xFD8
  2740                           
  2741 ;; *************** function _CANInitialize *****************
  2742 ;; Defined at:
  2743 ;;		line 218 in file "../../Scuola/Triennio/Tesina/can\CANlib.h"
  2744 ;; Parameters:    Size  Location     Type
  2745 ;;  propSeg         1    wreg     unsigned char 
  2746 ;;  phaseSeg1       1   33[BANK0 ] unsigned char 
  2747 ;;  phaseSeg2       1   34[BANK0 ] unsigned char 
  2748 ;;  SJW             1   35[BANK0 ] unsigned char 
  2749 ;;  BRP             1   36[BANK0 ] unsigned char 
  2750 ;;  flags           1   37[BANK0 ] enum E16844
  2751 ;; Auto vars:     Size  Location     Type
  2752 ;;  propSeg         1   42[BANK0 ] unsigned char 
  2753 ;;  FilterConfig    1   44[BANK0 ] unsigned char 
  2754 ;;  FilterConfig    1   43[BANK0 ] unsigned char 
  2755 ;; Return value:  Size  Location     Type
  2756 ;;		None               void
  2757 ;; Registers used:
  2758 ;;		wreg, status,2, status,0, cstack
  2759 ;; Tracked objects:
  2760 ;;		On entry : 0/0
  2761 ;;		On exit  : 0/0
  2762 ;;		Unchanged: 0/0
  2763 ;; Data sizes:     COMRAM   BANK0   BANK1   BANK2
  2764 ;;      Params:         0       5       0       0
  2765 ;;      Locals:         0       3       0       0
  2766 ;;      Temps:          0       4       0       0
  2767 ;;      Totals:         0      12       0       0
  2768 ;;Total ram usage:       12 bytes
  2769 ;; Hardware stack levels used:    1
  2770 ;; Hardware stack levels required when called:    5
  2771 ;; This function calls:
  2772 ;;		_CANOperationMode
  2773 ;;		_CANSetFilter
  2774 ;;		_CANSetMask
  2775 ;; This function is called by:
  2776 ;;		_configurazione_iniziale
  2777 ;; This function uses a non-reentrant model
  2778 ;;
  2779                           
  2780                           	psect	text7
  2781  002352                     __ptext7:
  2782                           	opt stack 0
  2783  002352                     _CANInitialize:
  2784                           	opt stack 24
  2785                           
  2786                           ;incstack = 0
  2787                           ;CANInitialize@propSeg stored from wreg
  2788  002352  0100               	movlb	0	; () banked
  2789  002354  6F8A               	movwf	CANInitialize@propSeg& (0+255),b
  2790                           
  2791                           ;can\CANlib.h: 220: BYTE FilterConfig1;
  2792                           ;can\CANlib.h: 221: BYTE FilterConfig2;
  2793                           ;can\CANlib.h: 223: CANOperationMode(CAN_OP_MODE_CONFIG);
  2794  002356  0E80               	movlw	128
  2795  002358  EC31  F015         	call	_CANOperationMode
  2796                           
  2797                           ;can\CANlib.h: 225: BRGCON1 = 0x00;
  2798  00235C  0E00               	movlw	0
  2799  00235E  6E70               	movwf	3952,c	;volatile
  2800                           
  2801                           ;can\CANlib.h: 226: BRGCON2 = 0x00;
  2802  002360  0E00               	movlw	0
  2803  002362  6E71               	movwf	3953,c	;volatile
  2804                           
  2805                           ;can\CANlib.h: 227: BRGCON3 = 0x00;
  2806  002364  0E00               	movlw	0
  2807  002366  6E72               	movwf	3954,c	;volatile
  2808                           
  2809                           ;can\CANlib.h: 229: SJW= SJW << 6;
  2810  002368  0100               	movlb	0	; () banked
  2811  00236A  4183               	rrncf	CANInitialize@SJW& (0+255),w,b
  2812  00236C  42E8               	rrncf	wreg,f,c
  2813  00236E  0BC0               	andlw	192
  2814  002370  0100               	movlb	0	; () banked
  2815  002372  6F83               	movwf	CANInitialize@SJW& (0+255),b
  2816                           
  2817                           ; BSR set to: 0
  2818                           ;can\CANlib.h: 230: BRGCON1 |= SJW;
  2819  002374  0100               	movlb	0	; () banked
  2820  002376  5183               	movf	CANInitialize@SJW& (0+255),w,b
  2821  002378  1270               	iorwf	3952,f,c	;volatile
  2822                           
  2823                           ; BSR set to: 0
  2824                           ;can\CANlib.h: 231: BRGCON1 |= BRP;
  2825  00237A  0100               	movlb	0	; () banked
  2826  00237C  5184               	movf	CANInitialize@BRP& (0+255),w,b
  2827  00237E  1270               	iorwf	3952,f,c	;volatile
  2828                           
  2829                           ; BSR set to: 0
  2830                           ;can\CANlib.h: 233: BRGCON2 |= propSeg;
  2831  002380  0100               	movlb	0	; () banked
  2832  002382  518A               	movf	CANInitialize@propSeg& (0+255),w,b
  2833  002384  1271               	iorwf	3953,f,c	;volatile
  2834                           
  2835                           ; BSR set to: 0
  2836                           ;can\CANlib.h: 234: phaseSeg1 = phaseSeg1 <<3;
  2837  002386  0100               	movlb	0	; () banked
  2838  002388  3981               	swapf	CANInitialize@phaseSeg1& (0+255),w,b
  2839  00238A  42E8               	rrncf	wreg,f,c
  2840  00238C  0BF8               	andlw	248
  2841  00238E  0100               	movlb	0	; () banked
  2842  002390  6F81               	movwf	CANInitialize@phaseSeg1& (0+255),b
  2843                           
  2844                           ; BSR set to: 0
  2845                           ;can\CANlib.h: 235: BRGCON2 |= phaseSeg1;
  2846  002392  0100               	movlb	0	; () banked
  2847  002394  5181               	movf	CANInitialize@phaseSeg1& (0+255),w,b
  2848  002396  1271               	iorwf	3953,f,c	;volatile
  2849                           
  2850                           ; BSR set to: 0
  2851                           ;can\CANlib.h: 237: if ( !(flags & CAN_CONFIG_SAMPLE_BIT) )
  2852  002398  0100               	movlb	0	; () banked
  2853  00239A  A585               	btfss	CANInitialize@flags& (0+255),2,b
  2854                           
  2855                           ; BSR set to: 0
  2856                           ;can\CANlib.h: 238: BRGCON2bits.SAM= 1;
  2857  00239C  8C71               	bsf	3953,6,c	;volatile
  2858                           
  2859                           ; BSR set to: 0
  2860                           ;can\CANlib.h: 240: if ( flags & CAN_CONFIG_PHSEG2_PRG_BIT )
  2861  00239E  0100               	movlb	0	; () banked
  2862  0023A0  B185               	btfsc	CANInitialize@flags& (0+255),0,b
  2863                           
  2864                           ; BSR set to: 0
  2865                           ;can\CANlib.h: 241: BRGCON2bits.SEG2PHTS = 1;
  2866  0023A2  8E71               	bsf	3953,7,c	;volatile
  2867                           
  2868                           ; BSR set to: 0
  2869                           ;can\CANlib.h: 243: BRGCON3 |= phaseSeg2;
  2870                           
  2871                           ; BSR set to: 0
  2872  0023A4  0100               	movlb	0	; () banked
  2873  0023A6  5182               	movf	CANInitialize@phaseSeg2& (0+255),w,b
  2874  0023A8  1272               	iorwf	3954,f,c	;volatile
  2875                           
  2876                           ; BSR set to: 0
  2877                           ;can\CANlib.h: 245: if ( flags & CAN_CONFIG_LINE_FILTER_BIT )
  2878  0023AA  0100               	movlb	0	; () banked
  2879  0023AC  B385               	btfsc	CANInitialize@flags& (0+255),1,b
  2880                           
  2881                           ; BSR set to: 0
  2882                           ;can\CANlib.h: 246: BRGCON3bits.WAKFIL = 1;
  2883  0023AE  8C72               	bsf	3954,6,c	;volatile
  2884                           
  2885                           ; BSR set to: 0
  2886                           ;can\CANlib.h: 251: RXB0CON = flags & CAN_CONFIG_MSG_BITS;
  2887                           
  2888                           ; BSR set to: 0
  2889  0023B0  0100               	movlb	0	; () banked
  2890  0023B2  5185               	movf	CANInitialize@flags& (0+255),w,b
  2891  0023B4  0B60               	andlw	96
  2892  0023B6  6E60               	movwf	3936,c	;volatile
  2893                           
  2894                           ;can\CANlib.h: 252: if ( (flags & CAN_CONFIG_DBL_BUFFER_BIT)== CAN_CONFIG_DBL_BUFFER_ON 
      +                          )
  2895  0023B8  0100               	movlb	0	; () banked
  2896  0023BA  5185               	movf	CANInitialize@flags& (0+255),w,b
  2897  0023BC  0B10               	andlw	16
  2898  0023BE  0AFF               	xorlw	255
  2899  0023C0  B4D8               	btfsc	status,2,c
  2900                           
  2901                           ; BSR set to: 0
  2902                           ;can\CANlib.h: 253: RXB0CONbits.RXB0DBEN = 1;
  2903  0023C2  8460               	bsf	3936,2,c	;volatile
  2904                           
  2905                           ; BSR set to: 0
  2906                           ;can\CANlib.h: 255: RXB1CON = RXB0CON;
  2907  0023C4  CF60 FF50          	movff	3936,3920	;volatile
  2908                           
  2909                           ; BSR set to: 0
  2910                           ;can\CANlib.h: 259: CANSetMask (CAN_MASK_B1, 0x00000000, CAN_CONFIG_XTD_MSG);
  2911  0023C8  0E00               	movlw	0
  2912  0023CA  0100               	movlb	0	; () banked
  2913  0023CC  6F73               	movwf	CANSetMask@mask& (0+255),b
  2914  0023CE  0E00               	movlw	0
  2915  0023D0  6F74               	movwf	(CANSetMask@mask+1)& (0+255),b
  2916  0023D2  0E00               	movlw	0
  2917  0023D4  6F75               	movwf	(CANSetMask@mask+2)& (0+255),b
  2918  0023D6  0E00               	movlw	0
  2919  0023D8  6F76               	movwf	(CANSetMask@mask+3)& (0+255),b
  2920  0023DA  0EF7               	movlw	247
  2921  0023DC  0100               	movlb	0	; () banked
  2922  0023DE  6F77               	movwf	CANSetMask@type& (0+255),b
  2923  0023E0  0E01               	movlw	1
  2924  0023E2  ECDA  F00F         	call	_CANSetMask
  2925                           
  2926                           ;can\CANlib.h: 260: CANSetMask (CAN_MASK_B2, 0x00000000, CAN_CONFIG_XTD_MSG);
  2927  0023E6  0E00               	movlw	0
  2928  0023E8  0100               	movlb	0	; () banked
  2929  0023EA  6F73               	movwf	CANSetMask@mask& (0+255),b
  2930  0023EC  0E00               	movlw	0
  2931  0023EE  6F74               	movwf	(CANSetMask@mask+1)& (0+255),b
  2932  0023F0  0E00               	movlw	0
  2933  0023F2  6F75               	movwf	(CANSetMask@mask+2)& (0+255),b
  2934  0023F4  0E00               	movlw	0
  2935  0023F6  6F76               	movwf	(CANSetMask@mask+3)& (0+255),b
  2936  0023F8  0EF7               	movlw	247
  2937  0023FA  0100               	movlb	0	; () banked
  2938  0023FC  6F77               	movwf	CANSetMask@type& (0+255),b
  2939  0023FE  0E02               	movlw	2
  2940  002400  ECDA  F00F         	call	_CANSetMask
  2941                           
  2942                           ;can\CANlib.h: 263: switch( (flags & CAN_CONFIG_MSG_BITS) | ~CAN_CONFIG_MSG_BITS )
  2943  002404  D00F               	goto	l3055
  2944  002406                     l3049:
  2945                           
  2946                           ;can\CANlib.h: 266: FilterConfig1 = CAN_CONFIG_XTD_MSG;
  2947  002406  0EF7               	movlw	247
  2948  002408  0100               	movlb	0	; () banked
  2949  00240A  6F8B               	movwf	CANInitialize@FilterConfig1& (0+255),b
  2950  00240C  D007               	goto	l3051
  2951  00240E                     l334:
  2952                           
  2953                           ; BSR set to: 0
  2954                           ;can\CANlib.h: 271: FilterConfig1 = CAN_CONFIG_STD_MSG;
  2955  00240E  0100               	movlb	0	; () banked
  2956  002410  698B               	setf	CANInitialize@FilterConfig1& (0+255),b
  2957                           
  2958                           ;can\CANlib.h: 272: FilterConfig2 = CAN_CONFIG_STD_MSG;
  2959  002412  0100               	movlb	0	; () banked
  2960  002414  698C               	setf	CANInitialize@FilterConfig2& (0+255),b
  2961                           
  2962                           ;can\CANlib.h: 273: break;
  2963  002416  D028               	goto	l3057
  2964  002418                     l335:
  2965                           
  2966                           ; BSR set to: 0
  2967                           ;can\CANlib.h: 275: FilterConfig1 = CAN_CONFIG_STD_MSG;
  2968  002418  0100               	movlb	0	; () banked
  2969  00241A  698B               	setf	CANInitialize@FilterConfig1& (0+255),b
  2970  00241C                     l3051:
  2971                           
  2972                           ; BSR set to: 0
  2973                           ;can\CANlib.h: 276: FilterConfig2 = CAN_CONFIG_XTD_MSG;
  2974  00241C  0EF7               	movlw	247
  2975  00241E  0100               	movlb	0	; () banked
  2976  002420  6F8C               	movwf	CANInitialize@FilterConfig2& (0+255),b
  2977                           
  2978                           ; BSR set to: 0
  2979                           ;can\CANlib.h: 278: }
  2980                           
  2981                           ;can\CANlib.h: 277: break;
  2982  002422  D022               	goto	l3057
  2983  002424                     l3055:
  2984  002424  0E9F               	movlw	159
  2985  002426  0100               	movlb	0	; () banked
  2986  002428  6F86               	movwf	??_CANInitialize& (0+255),b
  2987  00242A  0EFF               	movlw	255
  2988  00242C  0100               	movlb	0	; () banked
  2989  00242E  6F87               	movwf	(??_CANInitialize+1)& (0+255),b
  2990  002430  0100               	movlb	0	; () banked
  2991  002432  5185               	movf	CANInitialize@flags& (0+255),w,b
  2992  002434  0B60               	andlw	96
  2993  002436  0100               	movlb	0	; () banked
  2994  002438  6F88               	movwf	(??_CANInitialize+2)& (0+255),b
  2995  00243A  6B89               	clrf	(??_CANInitialize+3)& (0+255),b
  2996  00243C  0100               	movlb	0	; () banked
  2997  00243E  5186               	movf	??_CANInitialize& (0+255),w,b
  2998  002440  0100               	movlb	0	; () banked
  2999  002442  1388               	iorwf	(??_CANInitialize+2)& (0+255),f,b
  3000  002444  0100               	movlb	0	; () banked
  3001  002446  5187               	movf	(??_CANInitialize+1)& (0+255),w,b
  3002  002448  0100               	movlb	0	; () banked
  3003  00244A  1389               	iorwf	(??_CANInitialize+3)& (0+255),f,b
  3004                           
  3005                           ; Switch on 2 bytes has been partitioned into a top level switch of size 1, and 1 sub-sw
      +                          itches
  3006                           ; Switch size 1, requested type "space"
  3007                           ; Number of cases is 1, Range of values is 0 to 0
  3008                           ; switch strategies available:
  3009                           ; Name         Instructions Cycles
  3010                           ; simple_byte            4     3 (average)
  3011                           ;	Chosen strategy is simple_byte
  3012  00244C  0100               	movlb	0	; () banked
  3013  00244E  5189               	movf	(??_CANInitialize+3)& (0+255),w,b
  3014  002450  0A00               	xorlw	0	; case 0
  3015  002452  A4D8               	btfss	status,2,c
  3016  002454  D7E1               	goto	l335
  3017                           
  3018                           ; BSR set to: 0
  3019                           ; Switch size 1, requested type "space"
  3020                           ; Number of cases is 2, Range of values is 191 to 223
  3021                           ; switch strategies available:
  3022                           ; Name         Instructions Cycles
  3023                           ; simple_byte            7     4 (average)
  3024                           ;	Chosen strategy is simple_byte
  3025  002456  0100               	movlb	0	; () banked
  3026  002458  5188               	movf	(??_CANInitialize+2)& (0+255),w,b
  3027  00245A  0ABF               	xorlw	191	; case 191
  3028  00245C  B4D8               	btfsc	status,2,c
  3029  00245E  D7D7               	goto	l334
  3030  002460  0A60               	xorlw	96	; case 223
  3031  002462  B4D8               	btfsc	status,2,c
  3032  002464  D7D0               	goto	l3049
  3033  002466  D7D8               	goto	l335
  3034  002468                     l3057:
  3035                           
  3036                           ; BSR set to: 0
  3037                           ;can\CANlib.h: 280: CANSetFilter(CAN_FILTER_B1_F1, 0, FilterConfig1);
  3038  002468  0E00               	movlw	0
  3039  00246A  0100               	movlb	0	; () banked
  3040  00246C  6F73               	movwf	CANSetFilter@filter& (0+255),b
  3041  00246E  0E00               	movlw	0
  3042  002470  6F74               	movwf	(CANSetFilter@filter+1)& (0+255),b
  3043  002472  0E00               	movlw	0
  3044  002474  6F75               	movwf	(CANSetFilter@filter+2)& (0+255),b
  3045  002476  0E00               	movlw	0
  3046  002478  6F76               	movwf	(CANSetFilter@filter+3)& (0+255),b
  3047  00247A  C08B  F077         	movff	CANInitialize@FilterConfig1,CANSetFilter@type
  3048  00247E  0E00               	movlw	0
  3049  002480  ECC3  F000         	call	_CANSetFilter
  3050                           
  3051                           ;can\CANlib.h: 281: CANSetFilter(CAN_FILTER_B1_F2, 0, FilterConfig1);
  3052  002484  0E00               	movlw	0
  3053  002486  0100               	movlb	0	; () banked
  3054  002488  6F73               	movwf	CANSetFilter@filter& (0+255),b
  3055  00248A  0E00               	movlw	0
  3056  00248C  6F74               	movwf	(CANSetFilter@filter+1)& (0+255),b
  3057  00248E  0E00               	movlw	0
  3058  002490  6F75               	movwf	(CANSetFilter@filter+2)& (0+255),b
  3059  002492  0E00               	movlw	0
  3060  002494  6F76               	movwf	(CANSetFilter@filter+3)& (0+255),b
  3061  002496  C08B  F077         	movff	CANInitialize@FilterConfig1,CANSetFilter@type
  3062  00249A  0E01               	movlw	1
  3063  00249C  ECC3  F000         	call	_CANSetFilter
  3064                           
  3065                           ;can\CANlib.h: 282: CANSetFilter(CAN_FILTER_B2_F1, 0, FilterConfig2);
  3066  0024A0  0E00               	movlw	0
  3067  0024A2  0100               	movlb	0	; () banked
  3068  0024A4  6F73               	movwf	CANSetFilter@filter& (0+255),b
  3069  0024A6  0E00               	movlw	0
  3070  0024A8  6F74               	movwf	(CANSetFilter@filter+1)& (0+255),b
  3071  0024AA  0E00               	movlw	0
  3072  0024AC  6F75               	movwf	(CANSetFilter@filter+2)& (0+255),b
  3073  0024AE  0E00               	movlw	0
  3074  0024B0  6F76               	movwf	(CANSetFilter@filter+3)& (0+255),b
  3075  0024B2  C08C  F077         	movff	CANInitialize@FilterConfig2,CANSetFilter@type
  3076  0024B6  0E02               	movlw	2
  3077  0024B8  ECC3  F000         	call	_CANSetFilter
  3078                           
  3079                           ;can\CANlib.h: 283: CANSetFilter(CAN_FILTER_B2_F2, 0, FilterConfig2);
  3080  0024BC  0E00               	movlw	0
  3081  0024BE  0100               	movlb	0	; () banked
  3082  0024C0  6F73               	movwf	CANSetFilter@filter& (0+255),b
  3083  0024C2  0E00               	movlw	0
  3084  0024C4  6F74               	movwf	(CANSetFilter@filter+1)& (0+255),b
  3085  0024C6  0E00               	movlw	0
  3086  0024C8  6F75               	movwf	(CANSetFilter@filter+2)& (0+255),b
  3087  0024CA  0E00               	movlw	0
  3088  0024CC  6F76               	movwf	(CANSetFilter@filter+3)& (0+255),b
  3089  0024CE  C08C  F077         	movff	CANInitialize@FilterConfig2,CANSetFilter@type
  3090  0024D2  0E03               	movlw	3
  3091  0024D4  ECC3  F000         	call	_CANSetFilter
  3092                           
  3093                           ;can\CANlib.h: 284: CANSetFilter(CAN_FILTER_B2_F3, 0, FilterConfig2);
  3094  0024D8  0E00               	movlw	0
  3095  0024DA  0100               	movlb	0	; () banked
  3096  0024DC  6F73               	movwf	CANSetFilter@filter& (0+255),b
  3097  0024DE  0E00               	movlw	0
  3098  0024E0  6F74               	movwf	(CANSetFilter@filter+1)& (0+255),b
  3099  0024E2  0E00               	movlw	0
  3100  0024E4  6F75               	movwf	(CANSetFilter@filter+2)& (0+255),b
  3101  0024E6  0E00               	movlw	0
  3102  0024E8  6F76               	movwf	(CANSetFilter@filter+3)& (0+255),b
  3103  0024EA  C08C  F077         	movff	CANInitialize@FilterConfig2,CANSetFilter@type
  3104  0024EE  0E04               	movlw	4
  3105  0024F0  ECC3  F000         	call	_CANSetFilter
  3106                           
  3107                           ;can\CANlib.h: 285: CANSetFilter(CAN_FILTER_B2_F4, 0, FilterConfig2);
  3108  0024F4  0E00               	movlw	0
  3109  0024F6  0100               	movlb	0	; () banked
  3110  0024F8  6F73               	movwf	CANSetFilter@filter& (0+255),b
  3111  0024FA  0E00               	movlw	0
  3112  0024FC  6F74               	movwf	(CANSetFilter@filter+1)& (0+255),b
  3113  0024FE  0E00               	movlw	0
  3114  002500  6F75               	movwf	(CANSetFilter@filter+2)& (0+255),b
  3115  002502  0E00               	movlw	0
  3116  002504  6F76               	movwf	(CANSetFilter@filter+3)& (0+255),b
  3117  002506  C08C  F077         	movff	CANInitialize@FilterConfig2,CANSetFilter@type
  3118  00250A  0E05               	movlw	5
  3119  00250C  ECC3  F000         	call	_CANSetFilter
  3120                           
  3121                           ;can\CANlib.h: 287: CANOperationMode(CAN_OP_MODE_NORMAL);
  3122  002510  0E00               	movlw	0
  3123  002512  EC31  F015         	call	_CANOperationMode
  3124  002516  0012               	return		;funcret
  3125  002518                     __end_of_CANInitialize:
  3126                           	opt stack 0
  3127                           tblptru	equ	0xFF8
  3128                           tblptrh	equ	0xFF7
  3129                           tblptrl	equ	0xFF6
  3130                           tablat	equ	0xFF5
  3131                           prodh	equ	0xFF4
  3132                           prodl	equ	0xFF3
  3133                           intcon	equ	0xFF2
  3134                           intcon2	equ	0xFF1
  3135                           postinc0	equ	0xFEE
  3136                           wreg	equ	0xFE8
  3137                           indf2	equ	0xFDF
  3138                           fsr2h	equ	0xFDA
  3139                           fsr2l	equ	0xFD9
  3140                           status	equ	0xFD8
  3141                           
  3142 ;; *************** function _CANSetMask *****************
  3143 ;; Defined at:
  3144 ;;		line 640 in file "../../Scuola/Triennio/Tesina/can\CANlib.h"
  3145 ;; Parameters:    Size  Location     Type
  3146 ;;  numBuffer       1    wreg     enum E16878
  3147 ;;  mask            4   19[BANK0 ] unsigned long 
  3148 ;;  type            1   23[BANK0 ] enum E16844
  3149 ;; Auto vars:     Size  Location     Type
  3150 ;;  numBuffer       1   28[BANK0 ] enum E16878
  3151 ;;  tamp            4   29[BANK0 ] unsigned long 
  3152 ;; Return value:  Size  Location     Type
  3153 ;;		None               void
  3154 ;; Registers used:
  3155 ;;		wreg, status,2, status,0
  3156 ;; Tracked objects:
  3157 ;;		On entry : 0/0
  3158 ;;		On exit  : 0/0
  3159 ;;		Unchanged: 0/0
  3160 ;; Data sizes:     COMRAM   BANK0   BANK1   BANK2
  3161 ;;      Params:         0       5       0       0
  3162 ;;      Locals:         0       5       0       0
  3163 ;;      Temps:          0       4       0       0
  3164 ;;      Totals:         0      14       0       0
  3165 ;;Total ram usage:       14 bytes
  3166 ;; Hardware stack levels used:    1
  3167 ;; Hardware stack levels required when called:    4
  3168 ;; This function calls:
  3169 ;;		Nothing
  3170 ;; This function is called by:
  3171 ;;		_CANInitialize
  3172 ;; This function uses a non-reentrant model
  3173 ;;
  3174                           
  3175                           	psect	text8
  3176  001FB4                     __ptext8:
  3177                           	opt stack 0
  3178  001FB4                     _CANSetMask:
  3179                           	opt stack 24
  3180                           
  3181                           ;incstack = 0
  3182                           ;CANSetMask@numBuffer stored from wreg
  3183  001FB4  0100               	movlb	0	; () banked
  3184  001FB6  6F7C               	movwf	CANSetMask@numBuffer& (0+255),b
  3185                           
  3186                           ;can\CANlib.h: 643: if ((numBuffer ==CAN_MASK_B1) && (type == CAN_CONFIG_STD_MSG))
  3187  001FB8  0100               	movlb	0	; () banked
  3188  001FBA  057C               	decf	CANSetMask@numBuffer& (0+255),w,b
  3189  001FBC  A4D8               	btfss	status,2,c
  3190  001FBE  D056               	goto	l2619
  3191                           
  3192                           ; BSR set to: 0
  3193  001FC0  0100               	movlb	0	; () banked
  3194  001FC2  2977               	incf	CANSetMask@type& (0+255),w,b
  3195  001FC4  A4D8               	btfss	status,2,c
  3196  001FC6  D052               	goto	l2619
  3197                           
  3198                           ; BSR set to: 0
  3199                           ;can\CANlib.h: 644: {
  3200                           ;can\CANlib.h: 645: tamp = (mask >> 3);
  3201  001FC8  C073  F078         	movff	CANSetMask@mask,??_CANSetMask
  3202  001FCC  C074  F079         	movff	CANSetMask@mask+1,??_CANSetMask+1
  3203  001FD0  C075  F07A         	movff	CANSetMask@mask+2,??_CANSetMask+2
  3204  001FD4  C076  F07B         	movff	CANSetMask@mask+3,??_CANSetMask+3
  3205  001FD8  0E04               	movlw	4
  3206  001FDA  D006               	goto	u2410
  3207  001FDC                     u2415:
  3208  001FDC  0100               	movlb	0	; () banked
  3209  001FDE  90D8               	bcf	status,0,c
  3210  001FE0  337B               	rrcf	(??_CANSetMask+3)& (0+255),f,b
  3211  001FE2  337A               	rrcf	(??_CANSetMask+2)& (0+255),f,b
  3212  001FE4  3379               	rrcf	(??_CANSetMask+1)& (0+255),f,b
  3213  001FE6  3378               	rrcf	??_CANSetMask& (0+255),f,b
  3214  001FE8                     u2410:
  3215  001FE8  2EE8               	decfsz	wreg,f,c
  3216  001FEA  D7F8               	goto	u2415
  3217  001FEC  C078  F07D         	movff	??_CANSetMask,CANSetMask@tamp
  3218  001FF0  C079  F07E         	movff	??_CANSetMask+1,CANSetMask@tamp+1
  3219  001FF4  C07A  F07F         	movff	??_CANSetMask+2,CANSetMask@tamp+2
  3220  001FF8  C07B  F080         	movff	??_CANSetMask+3,CANSetMask@tamp+3
  3221                           
  3222                           ; BSR set to: 0
  3223                           ;can\CANlib.h: 646: tamp = tamp & 0x000000FF;
  3224  001FFC  0100               	movlb	0	; () banked
  3225  001FFE  517D               	movf	CANSetMask@tamp& (0+255),w,b
  3226  002000  0100               	movlb	0	; () banked
  3227  002002  6F7D               	movwf	CANSetMask@tamp& (0+255),b
  3228  002004  6B7E               	clrf	(CANSetMask@tamp+1)& (0+255),b
  3229  002006  6B7F               	clrf	(CANSetMask@tamp+2)& (0+255),b
  3230  002008  6B80               	clrf	(CANSetMask@tamp+3)& (0+255),b
  3231                           
  3232                           ; BSR set to: 0
  3233                           ;can\CANlib.h: 647: RXM0SIDH = (unsigned char) tamp;
  3234  00200A  C07D  FF18         	movff	CANSetMask@tamp,3864	;volatile
  3235                           
  3236                           ; BSR set to: 0
  3237                           ;can\CANlib.h: 649: tamp = mask & 0x00000007;
  3238  00200E  0E07               	movlw	7
  3239  002010  0100               	movlb	0	; () banked
  3240  002012  1573               	andwf	CANSetMask@mask& (0+255),w,b
  3241  002014  0100               	movlb	0	; () banked
  3242  002016  6F7D               	movwf	CANSetMask@tamp& (0+255),b
  3243  002018  0E00               	movlw	0
  3244  00201A  0100               	movlb	0	; () banked
  3245  00201C  1574               	andwf	(CANSetMask@mask+1)& (0+255),w,b
  3246  00201E  0100               	movlb	0	; () banked
  3247  002020  6F7E               	movwf	(CANSetMask@tamp+1)& (0+255),b
  3248  002022  0E00               	movlw	0
  3249  002024  0100               	movlb	0	; () banked
  3250  002026  1575               	andwf	(CANSetMask@mask+2)& (0+255),w,b
  3251  002028  0100               	movlb	0	; () banked
  3252  00202A  6F7F               	movwf	(CANSetMask@tamp+2)& (0+255),b
  3253  00202C  0E00               	movlw	0
  3254  00202E  0100               	movlb	0	; () banked
  3255  002030  1576               	andwf	(CANSetMask@mask+3)& (0+255),w,b
  3256  002032  0100               	movlb	0	; () banked
  3257  002034  6F80               	movwf	(CANSetMask@tamp+3)& (0+255),b
  3258                           
  3259                           ; BSR set to: 0
  3260                           ;can\CANlib.h: 650: tamp = tamp << 5;
  3261  002036  C07D  F078         	movff	CANSetMask@tamp,??_CANSetMask
  3262  00203A  C07E  F079         	movff	CANSetMask@tamp+1,??_CANSetMask+1
  3263  00203E  C07F  F07A         	movff	CANSetMask@tamp+2,??_CANSetMask+2
  3264  002042  C080  F07B         	movff	CANSetMask@tamp+3,??_CANSetMask+3
  3265  002046  0E05               	movlw	5
  3266  002048                     u2425:
  3267  002048  90D8               	bcf	status,0,c
  3268  00204A  0100               	movlb	0	; () banked
  3269  00204C  3778               	rlcf	??_CANSetMask& (0+255),f,b
  3270  00204E  3779               	rlcf	(??_CANSetMask+1)& (0+255),f,b
  3271  002050  377A               	rlcf	(??_CANSetMask+2)& (0+255),f,b
  3272  002052  377B               	rlcf	(??_CANSetMask+3)& (0+255),f,b
  3273  002054  2EE8               	decfsz	wreg,f,c
  3274  002056  D7F8               	goto	u2425
  3275  002058  C078  F07D         	movff	??_CANSetMask,CANSetMask@tamp
  3276  00205C  C079  F07E         	movff	??_CANSetMask+1,CANSetMask@tamp+1
  3277  002060  C07A  F07F         	movff	??_CANSetMask+2,CANSetMask@tamp+2
  3278  002064  C07B  F080         	movff	??_CANSetMask+3,CANSetMask@tamp+3
  3279                           
  3280                           ; BSR set to: 0
  3281                           ;can\CANlib.h: 651: RXM0SIDL = (unsigned char) tamp;
  3282  002068  C07D  FF19         	movff	CANSetMask@tamp,3865	;volatile
  3283  00206C                     l2619:
  3284                           
  3285                           ; BSR set to: 0
  3286                           ;can\CANlib.h: 652: }
  3287                           ;can\CANlib.h: 654: if ((numBuffer ==CAN_MASK_B2) && (type == CAN_CONFIG_STD_MSG))
  3288  00206C  0E02               	movlw	2
  3289  00206E  0100               	movlb	0	; () banked
  3290  002070  197C               	xorwf	CANSetMask@numBuffer& (0+255),w,b
  3291  002072  A4D8               	btfss	status,2,c
  3292  002074  D056               	goto	l2635
  3293                           
  3294                           ; BSR set to: 0
  3295  002076  0100               	movlb	0	; () banked
  3296  002078  2977               	incf	CANSetMask@type& (0+255),w,b
  3297  00207A  A4D8               	btfss	status,2,c
  3298  00207C  D052               	goto	l2635
  3299                           
  3300                           ; BSR set to: 0
  3301                           ;can\CANlib.h: 655: {
  3302                           ;can\CANlib.h: 656: tamp = (mask >> 3);
  3303  00207E  C073  F078         	movff	CANSetMask@mask,??_CANSetMask
  3304  002082  C074  F079         	movff	CANSetMask@mask+1,??_CANSetMask+1
  3305  002086  C075  F07A         	movff	CANSetMask@mask+2,??_CANSetMask+2
  3306  00208A  C076  F07B         	movff	CANSetMask@mask+3,??_CANSetMask+3
  3307  00208E  0E04               	movlw	4
  3308  002090  D006               	goto	u2450
  3309  002092                     u2455:
  3310  002092  0100               	movlb	0	; () banked
  3311  002094  90D8               	bcf	status,0,c
  3312  002096  337B               	rrcf	(??_CANSetMask+3)& (0+255),f,b
  3313  002098  337A               	rrcf	(??_CANSetMask+2)& (0+255),f,b
  3314  00209A  3379               	rrcf	(??_CANSetMask+1)& (0+255),f,b
  3315  00209C  3378               	rrcf	??_CANSetMask& (0+255),f,b
  3316  00209E                     u2450:
  3317  00209E  2EE8               	decfsz	wreg,f,c
  3318  0020A0  D7F8               	goto	u2455
  3319  0020A2  C078  F07D         	movff	??_CANSetMask,CANSetMask@tamp
  3320  0020A6  C079  F07E         	movff	??_CANSetMask+1,CANSetMask@tamp+1
  3321  0020AA  C07A  F07F         	movff	??_CANSetMask+2,CANSetMask@tamp+2
  3322  0020AE  C07B  F080         	movff	??_CANSetMask+3,CANSetMask@tamp+3
  3323                           
  3324                           ; BSR set to: 0
  3325                           ;can\CANlib.h: 657: tamp = tamp & 0x000000FF;
  3326  0020B2  0100               	movlb	0	; () banked
  3327  0020B4  517D               	movf	CANSetMask@tamp& (0+255),w,b
  3328  0020B6  0100               	movlb	0	; () banked
  3329  0020B8  6F7D               	movwf	CANSetMask@tamp& (0+255),b
  3330  0020BA  6B7E               	clrf	(CANSetMask@tamp+1)& (0+255),b
  3331  0020BC  6B7F               	clrf	(CANSetMask@tamp+2)& (0+255),b
  3332  0020BE  6B80               	clrf	(CANSetMask@tamp+3)& (0+255),b
  3333                           
  3334                           ; BSR set to: 0
  3335                           ;can\CANlib.h: 658: RXM1SIDH = (unsigned char) tamp;
  3336  0020C0  C07D  FF1C         	movff	CANSetMask@tamp,3868	;volatile
  3337                           
  3338                           ; BSR set to: 0
  3339                           ;can\CANlib.h: 660: tamp = mask & 0x00000007;
  3340  0020C4  0E07               	movlw	7
  3341  0020C6  0100               	movlb	0	; () banked
  3342  0020C8  1573               	andwf	CANSetMask@mask& (0+255),w,b
  3343  0020CA  0100               	movlb	0	; () banked
  3344  0020CC  6F7D               	movwf	CANSetMask@tamp& (0+255),b
  3345  0020CE  0E00               	movlw	0
  3346  0020D0  0100               	movlb	0	; () banked
  3347  0020D2  1574               	andwf	(CANSetMask@mask+1)& (0+255),w,b
  3348  0020D4  0100               	movlb	0	; () banked
  3349  0020D6  6F7E               	movwf	(CANSetMask@tamp+1)& (0+255),b
  3350  0020D8  0E00               	movlw	0
  3351  0020DA  0100               	movlb	0	; () banked
  3352  0020DC  1575               	andwf	(CANSetMask@mask+2)& (0+255),w,b
  3353  0020DE  0100               	movlb	0	; () banked
  3354  0020E0  6F7F               	movwf	(CANSetMask@tamp+2)& (0+255),b
  3355  0020E2  0E00               	movlw	0
  3356  0020E4  0100               	movlb	0	; () banked
  3357  0020E6  1576               	andwf	(CANSetMask@mask+3)& (0+255),w,b
  3358  0020E8  0100               	movlb	0	; () banked
  3359  0020EA  6F80               	movwf	(CANSetMask@tamp+3)& (0+255),b
  3360                           
  3361                           ; BSR set to: 0
  3362                           ;can\CANlib.h: 661: tamp = tamp << 5;
  3363  0020EC  C07D  F078         	movff	CANSetMask@tamp,??_CANSetMask
  3364  0020F0  C07E  F079         	movff	CANSetMask@tamp+1,??_CANSetMask+1
  3365  0020F4  C07F  F07A         	movff	CANSetMask@tamp+2,??_CANSetMask+2
  3366  0020F8  C080  F07B         	movff	CANSetMask@tamp+3,??_CANSetMask+3
  3367  0020FC  0E05               	movlw	5
  3368  0020FE                     u2465:
  3369  0020FE  90D8               	bcf	status,0,c
  3370  002100  0100               	movlb	0	; () banked
  3371  002102  3778               	rlcf	??_CANSetMask& (0+255),f,b
  3372  002104  3779               	rlcf	(??_CANSetMask+1)& (0+255),f,b
  3373  002106  377A               	rlcf	(??_CANSetMask+2)& (0+255),f,b
  3374  002108  377B               	rlcf	(??_CANSetMask+3)& (0+255),f,b
  3375  00210A  2EE8               	decfsz	wreg,f,c
  3376  00210C  D7F8               	goto	u2465
  3377  00210E  C078  F07D         	movff	??_CANSetMask,CANSetMask@tamp
  3378  002112  C079  F07E         	movff	??_CANSetMask+1,CANSetMask@tamp+1
  3379  002116  C07A  F07F         	movff	??_CANSetMask+2,CANSetMask@tamp+2
  3380  00211A  C07B  F080         	movff	??_CANSetMask+3,CANSetMask@tamp+3
  3381                           
  3382                           ; BSR set to: 0
  3383                           ;can\CANlib.h: 662: RXM1SIDL = (unsigned char) tamp;
  3384  00211E  C07D  FF1D         	movff	CANSetMask@tamp,3869	;volatile
  3385  002122                     l2635:
  3386                           
  3387                           ; BSR set to: 0
  3388                           ;can\CANlib.h: 663: }
  3389                           ;can\CANlib.h: 665: if ((numBuffer ==CAN_MASK_B1) && (type == CAN_CONFIG_XTD_MSG))
  3390  002122  0100               	movlb	0	; () banked
  3391  002124  057C               	decf	CANSetMask@numBuffer& (0+255),w,b
  3392  002126  A4D8               	btfss	status,2,c
  3393  002128  D087               	goto	l2667
  3394                           
  3395                           ; BSR set to: 0
  3396  00212A  0EF7               	movlw	247
  3397  00212C  0100               	movlb	0	; () banked
  3398  00212E  1977               	xorwf	CANSetMask@type& (0+255),w,b
  3399  002130  A4D8               	btfss	status,2,c
  3400  002132  D082               	goto	l2667
  3401                           
  3402                           ; BSR set to: 0
  3403                           ;can\CANlib.h: 666: {
  3404                           ;can\CANlib.h: 667: tamp = mask & 0x000000FF;
  3405  002134  0100               	movlb	0	; () banked
  3406  002136  5173               	movf	CANSetMask@mask& (0+255),w,b
  3407  002138  0100               	movlb	0	; () banked
  3408  00213A  6F7D               	movwf	CANSetMask@tamp& (0+255),b
  3409  00213C  6B7E               	clrf	(CANSetMask@tamp+1)& (0+255),b
  3410  00213E  6B7F               	clrf	(CANSetMask@tamp+2)& (0+255),b
  3411  002140  6B80               	clrf	(CANSetMask@tamp+3)& (0+255),b
  3412                           
  3413                           ; BSR set to: 0
  3414                           ;can\CANlib.h: 668: RXM0EIDL = (unsigned char) tamp;
  3415  002142  C07D  FF1B         	movff	CANSetMask@tamp,3867	;volatile
  3416                           
  3417                           ; BSR set to: 0
  3418                           ;can\CANlib.h: 670: tamp = mask & 0x0000FF00;
  3419  002146  0E00               	movlw	0
  3420  002148  0100               	movlb	0	; () banked
  3421  00214A  1573               	andwf	CANSetMask@mask& (0+255),w,b
  3422  00214C  0100               	movlb	0	; () banked
  3423  00214E  6F7D               	movwf	CANSetMask@tamp& (0+255),b
  3424  002150  0EFF               	movlw	255
  3425  002152  0100               	movlb	0	; () banked
  3426  002154  1574               	andwf	(CANSetMask@mask+1)& (0+255),w,b
  3427  002156  0100               	movlb	0	; () banked
  3428  002158  6F7E               	movwf	(CANSetMask@tamp+1)& (0+255),b
  3429  00215A  0E00               	movlw	0
  3430  00215C  0100               	movlb	0	; () banked
  3431  00215E  1575               	andwf	(CANSetMask@mask+2)& (0+255),w,b
  3432  002160  0100               	movlb	0	; () banked
  3433  002162  6F7F               	movwf	(CANSetMask@tamp+2)& (0+255),b
  3434  002164  0E00               	movlw	0
  3435  002166  0100               	movlb	0	; () banked
  3436  002168  1576               	andwf	(CANSetMask@mask+3)& (0+255),w,b
  3437  00216A  0100               	movlb	0	; () banked
  3438  00216C  6F80               	movwf	(CANSetMask@tamp+3)& (0+255),b
  3439                           
  3440                           ; BSR set to: 0
  3441                           ;can\CANlib.h: 671: tamp = tamp >> 8;
  3442  00216E  C07D  F078         	movff	CANSetMask@tamp,??_CANSetMask
  3443  002172  C07E  F079         	movff	CANSetMask@tamp+1,??_CANSetMask+1
  3444  002176  C07F  F07A         	movff	CANSetMask@tamp+2,??_CANSetMask+2
  3445  00217A  C080  F07B         	movff	CANSetMask@tamp+3,??_CANSetMask+3
  3446  00217E  C079  F078         	movff	??_CANSetMask+1,??_CANSetMask
  3447  002182  C07A  F079         	movff	??_CANSetMask+2,??_CANSetMask+1
  3448  002186  C07B  F07A         	movff	??_CANSetMask+3,??_CANSetMask+2
  3449  00218A  0100               	movlb	0	; () banked
  3450  00218C  6B7B               	clrf	(??_CANSetMask+3)& (0+255),b
  3451  00218E  C078  F07D         	movff	??_CANSetMask,CANSetMask@tamp
  3452  002192  C079  F07E         	movff	??_CANSetMask+1,CANSetMask@tamp+1
  3453  002196  C07A  F07F         	movff	??_CANSetMask+2,CANSetMask@tamp+2
  3454  00219A  C07B  F080         	movff	??_CANSetMask+3,CANSetMask@tamp+3
  3455                           
  3456                           ; BSR set to: 0
  3457                           ;can\CANlib.h: 672: RXM0EIDH = (unsigned char) tamp;
  3458  00219E  C07D  FF1A         	movff	CANSetMask@tamp,3866	;volatile
  3459                           
  3460                           ; BSR set to: 0
  3461                           ;can\CANlib.h: 674: if (mask & 0x00010000)
  3462  0021A2  0100               	movlb	0	; () banked
  3463  0021A4  A175               	btfss	(CANSetMask@mask+2)& (0+255),0,b
  3464  0021A6  D003               	goto	l408
  3465                           
  3466                           ; BSR set to: 0
  3467                           ;can\CANlib.h: 675: RXM0SIDLbits.EID16 = 0x01;
  3468  0021A8  010F               	movlb	15	; () banked
  3469  0021AA  8119               	bsf	25,0,b	;volatile
  3470  0021AC  D002               	goto	l409
  3471  0021AE                     l408:
  3472                           
  3473                           ; BSR set to: 0
  3474                           ;can\CANlib.h: 676: else
  3475                           ;can\CANlib.h: 677: RXM0SIDLbits.EID16 = 0x00;
  3476  0021AE  010F               	movlb	15	; () banked
  3477  0021B0  9119               	bcf	25,0,b	;volatile
  3478  0021B2                     l409:
  3479                           
  3480                           ; BSR set to: 15
  3481                           ;can\CANlib.h: 679: if (mask & 0x00020000)
  3482  0021B2  0100               	movlb	0	; () banked
  3483  0021B4  A375               	btfss	(CANSetMask@mask+2)& (0+255),1,b
  3484  0021B6  D003               	goto	l410
  3485                           
  3486                           ; BSR set to: 0
  3487                           ;can\CANlib.h: 680: RXM0SIDLbits.EID17 = 0x01;
  3488  0021B8  010F               	movlb	15	; () banked
  3489  0021BA  8319               	bsf	25,1,b	;volatile
  3490  0021BC  D002               	goto	l411
  3491  0021BE                     l410:
  3492                           
  3493                           ; BSR set to: 0
  3494                           ;can\CANlib.h: 681: else
  3495                           ;can\CANlib.h: 682: RXM0SIDLbits.EID17 = 0x00;
  3496  0021BE  010F               	movlb	15	; () banked
  3497  0021C0  9319               	bcf	25,1,b	;volatile
  3498  0021C2                     l411:
  3499                           
  3500                           ; BSR set to: 15
  3501                           ;can\CANlib.h: 684: if (mask & 0x00040000)
  3502  0021C2  0100               	movlb	0	; () banked
  3503  0021C4  A575               	btfss	(CANSetMask@mask+2)& (0+255),2,b
  3504  0021C6  D003               	goto	l412
  3505                           
  3506                           ; BSR set to: 0
  3507                           ;can\CANlib.h: 685: RXM0SIDLbits.SID0 = 0x01;
  3508  0021C8  010F               	movlb	15	; () banked
  3509  0021CA  8B19               	bsf	25,5,b	;volatile
  3510  0021CC  D002               	goto	l413
  3511  0021CE                     l412:
  3512                           
  3513                           ; BSR set to: 0
  3514                           ;can\CANlib.h: 686: else
  3515                           ;can\CANlib.h: 687: RXM0SIDLbits.SID0 = 0x00;
  3516  0021CE  010F               	movlb	15	; () banked
  3517  0021D0  9B19               	bcf	25,5,b	;volatile
  3518  0021D2                     l413:
  3519                           
  3520                           ; BSR set to: 15
  3521                           ;can\CANlib.h: 689: if (mask & 0x00080000)
  3522  0021D2  0100               	movlb	0	; () banked
  3523  0021D4  A775               	btfss	(CANSetMask@mask+2)& (0+255),3,b
  3524  0021D6  D003               	goto	l414
  3525                           
  3526                           ; BSR set to: 0
  3527                           ;can\CANlib.h: 690: RXM0SIDLbits.SID1 = 0x01;
  3528  0021D8  010F               	movlb	15	; () banked
  3529  0021DA  8D19               	bsf	25,6,b	;volatile
  3530  0021DC  D002               	goto	l415
  3531  0021DE                     l414:
  3532                           
  3533                           ; BSR set to: 0
  3534                           ;can\CANlib.h: 691: else
  3535                           ;can\CANlib.h: 692: RXM0SIDLbits.SID1 = 0x00;
  3536  0021DE  010F               	movlb	15	; () banked
  3537  0021E0  9D19               	bcf	25,6,b	;volatile
  3538  0021E2                     l415:
  3539                           
  3540                           ; BSR set to: 15
  3541                           ;can\CANlib.h: 694: if (mask & 0x00100000)
  3542  0021E2  0100               	movlb	0	; () banked
  3543  0021E4  A975               	btfss	(CANSetMask@mask+2)& (0+255),4,b
  3544  0021E6  D003               	goto	l416
  3545                           
  3546                           ; BSR set to: 0
  3547                           ;can\CANlib.h: 695: RXM0SIDLbits.SID2 = 0x01 ;
  3548  0021E8  010F               	movlb	15	; () banked
  3549  0021EA  8F19               	bsf	25,7,b	;volatile
  3550  0021EC  D002               	goto	l2661
  3551  0021EE                     l416:
  3552                           
  3553                           ; BSR set to: 0
  3554                           ;can\CANlib.h: 696: else
  3555                           ;can\CANlib.h: 697: RXM0SIDLbits.SID2 = 0x00 ;
  3556  0021EE  010F               	movlb	15	; () banked
  3557  0021F0  9F19               	bcf	25,7,b	;volatile
  3558  0021F2                     l2661:
  3559                           
  3560                           ; BSR set to: 15
  3561                           ;can\CANlib.h: 699: tamp = (mask >> 21);
  3562  0021F2  C073  F078         	movff	CANSetMask@mask,??_CANSetMask
  3563  0021F6  C074  F079         	movff	CANSetMask@mask+1,??_CANSetMask+1
  3564  0021FA  C075  F07A         	movff	CANSetMask@mask+2,??_CANSetMask+2
  3565  0021FE  C076  F07B         	movff	CANSetMask@mask+3,??_CANSetMask+3
  3566  002202  0E16               	movlw	22
  3567  002204  D006               	goto	u2540
  3568  002206                     u2545:
  3569  002206  0100               	movlb	0	; () banked
  3570  002208  90D8               	bcf	status,0,c
  3571  00220A  337B               	rrcf	(??_CANSetMask+3)& (0+255),f,b
  3572  00220C  337A               	rrcf	(??_CANSetMask+2)& (0+255),f,b
  3573  00220E  3379               	rrcf	(??_CANSetMask+1)& (0+255),f,b
  3574  002210  3378               	rrcf	??_CANSetMask& (0+255),f,b
  3575  002212                     u2540:
  3576  002212  2EE8               	decfsz	wreg,f,c
  3577  002214  D7F8               	goto	u2545
  3578  002216  C078  F07D         	movff	??_CANSetMask,CANSetMask@tamp
  3579  00221A  C079  F07E         	movff	??_CANSetMask+1,CANSetMask@tamp+1
  3580  00221E  C07A  F07F         	movff	??_CANSetMask+2,CANSetMask@tamp+2
  3581  002222  C07B  F080         	movff	??_CANSetMask+3,CANSetMask@tamp+3
  3582                           
  3583                           ; BSR set to: 0
  3584                           ;can\CANlib.h: 700: tamp = tamp & 0x000000FF;
  3585  002226  0100               	movlb	0	; () banked
  3586  002228  517D               	movf	CANSetMask@tamp& (0+255),w,b
  3587  00222A  0100               	movlb	0	; () banked
  3588  00222C  6F7D               	movwf	CANSetMask@tamp& (0+255),b
  3589  00222E  6B7E               	clrf	(CANSetMask@tamp+1)& (0+255),b
  3590  002230  6B7F               	clrf	(CANSetMask@tamp+2)& (0+255),b
  3591  002232  6B80               	clrf	(CANSetMask@tamp+3)& (0+255),b
  3592                           
  3593                           ; BSR set to: 0
  3594                           ;can\CANlib.h: 701: RXM0SIDH = (unsigned char) tamp;
  3595  002234  C07D  FF18         	movff	CANSetMask@tamp,3864	;volatile
  3596  002238                     l2667:
  3597                           
  3598                           ; BSR set to: 0
  3599                           ;can\CANlib.h: 702: }
  3600                           ;can\CANlib.h: 704: if ((numBuffer ==CAN_MASK_B2) && (type == CAN_CONFIG_XTD_MSG))
  3601  002238  0E02               	movlw	2
  3602  00223A  0100               	movlb	0	; () banked
  3603  00223C  197C               	xorwf	CANSetMask@numBuffer& (0+255),w,b
  3604  00223E  A4D8               	btfss	status,2,c
  3605  002240  0012               	return	
  3606                           
  3607                           ; BSR set to: 0
  3608  002242  0EF7               	movlw	247
  3609  002244  0100               	movlb	0	; () banked
  3610  002246  1977               	xorwf	CANSetMask@type& (0+255),w,b
  3611  002248  A4D8               	btfss	status,2,c
  3612  00224A  0012               	return	
  3613                           
  3614                           ; BSR set to: 0
  3615                           ;can\CANlib.h: 705: {
  3616                           ;can\CANlib.h: 706: tamp = mask & 0x000000FF;
  3617  00224C  0100               	movlb	0	; () banked
  3618  00224E  5173               	movf	CANSetMask@mask& (0+255),w,b
  3619  002250  0100               	movlb	0	; () banked
  3620  002252  6F7D               	movwf	CANSetMask@tamp& (0+255),b
  3621  002254  6B7E               	clrf	(CANSetMask@tamp+1)& (0+255),b
  3622  002256  6B7F               	clrf	(CANSetMask@tamp+2)& (0+255),b
  3623  002258  6B80               	clrf	(CANSetMask@tamp+3)& (0+255),b
  3624                           
  3625                           ; BSR set to: 0
  3626                           ;can\CANlib.h: 707: RXM1EIDL = (unsigned char) tamp;
  3627  00225A  C07D  FF1F         	movff	CANSetMask@tamp,3871	;volatile
  3628                           
  3629                           ; BSR set to: 0
  3630                           ;can\CANlib.h: 709: tamp = mask & 0x0000FF00;
  3631  00225E  0E00               	movlw	0
  3632  002260  0100               	movlb	0	; () banked
  3633  002262  1573               	andwf	CANSetMask@mask& (0+255),w,b
  3634  002264  0100               	movlb	0	; () banked
  3635  002266  6F7D               	movwf	CANSetMask@tamp& (0+255),b
  3636  002268  0EFF               	movlw	255
  3637  00226A  0100               	movlb	0	; () banked
  3638  00226C  1574               	andwf	(CANSetMask@mask+1)& (0+255),w,b
  3639  00226E  0100               	movlb	0	; () banked
  3640  002270  6F7E               	movwf	(CANSetMask@tamp+1)& (0+255),b
  3641  002272  0E00               	movlw	0
  3642  002274  0100               	movlb	0	; () banked
  3643  002276  1575               	andwf	(CANSetMask@mask+2)& (0+255),w,b
  3644  002278  0100               	movlb	0	; () banked
  3645  00227A  6F7F               	movwf	(CANSetMask@tamp+2)& (0+255),b
  3646  00227C  0E00               	movlw	0
  3647  00227E  0100               	movlb	0	; () banked
  3648  002280  1576               	andwf	(CANSetMask@mask+3)& (0+255),w,b
  3649  002282  0100               	movlb	0	; () banked
  3650  002284  6F80               	movwf	(CANSetMask@tamp+3)& (0+255),b
  3651                           
  3652                           ; BSR set to: 0
  3653                           ;can\CANlib.h: 710: tamp = tamp >> 8;
  3654  002286  C07D  F078         	movff	CANSetMask@tamp,??_CANSetMask
  3655  00228A  C07E  F079         	movff	CANSetMask@tamp+1,??_CANSetMask+1
  3656  00228E  C07F  F07A         	movff	CANSetMask@tamp+2,??_CANSetMask+2
  3657  002292  C080  F07B         	movff	CANSetMask@tamp+3,??_CANSetMask+3
  3658  002296  C079  F078         	movff	??_CANSetMask+1,??_CANSetMask
  3659  00229A  C07A  F079         	movff	??_CANSetMask+2,??_CANSetMask+1
  3660  00229E  C07B  F07A         	movff	??_CANSetMask+3,??_CANSetMask+2
  3661  0022A2  0100               	movlb	0	; () banked
  3662  0022A4  6B7B               	clrf	(??_CANSetMask+3)& (0+255),b
  3663  0022A6  C078  F07D         	movff	??_CANSetMask,CANSetMask@tamp
  3664  0022AA  C079  F07E         	movff	??_CANSetMask+1,CANSetMask@tamp+1
  3665  0022AE  C07A  F07F         	movff	??_CANSetMask+2,CANSetMask@tamp+2
  3666  0022B2  C07B  F080         	movff	??_CANSetMask+3,CANSetMask@tamp+3
  3667                           
  3668                           ; BSR set to: 0
  3669                           ;can\CANlib.h: 711: RXM1EIDH = (unsigned char) tamp;
  3670  0022B6  C07D  FF1E         	movff	CANSetMask@tamp,3870	;volatile
  3671                           
  3672                           ; BSR set to: 0
  3673                           ;can\CANlib.h: 713: if (mask & 0x00010000)
  3674  0022BA  0100               	movlb	0	; () banked
  3675  0022BC  A175               	btfss	(CANSetMask@mask+2)& (0+255),0,b
  3676  0022BE  D003               	goto	l419
  3677                           
  3678                           ; BSR set to: 0
  3679                           ;can\CANlib.h: 714: RXM1SIDLbits.EID16 = 0x01;
  3680  0022C0  010F               	movlb	15	; () banked
  3681  0022C2  811D               	bsf	29,0,b	;volatile
  3682  0022C4  D002               	goto	l420
  3683  0022C6                     l419:
  3684                           
  3685                           ; BSR set to: 0
  3686                           ;can\CANlib.h: 715: else
  3687                           ;can\CANlib.h: 716: RXM1SIDLbits.EID16 = 0x00;
  3688  0022C6  010F               	movlb	15	; () banked
  3689  0022C8  911D               	bcf	29,0,b	;volatile
  3690  0022CA                     l420:
  3691                           
  3692                           ; BSR set to: 15
  3693                           ;can\CANlib.h: 718: if (mask & 0x00020000)
  3694  0022CA  0100               	movlb	0	; () banked
  3695  0022CC  A375               	btfss	(CANSetMask@mask+2)& (0+255),1,b
  3696  0022CE  D003               	goto	l421
  3697                           
  3698                           ; BSR set to: 0
  3699                           ;can\CANlib.h: 719: RXM1SIDLbits.EID17 = 0x01;
  3700  0022D0  010F               	movlb	15	; () banked
  3701  0022D2  831D               	bsf	29,1,b	;volatile
  3702  0022D4  D002               	goto	l422
  3703  0022D6                     l421:
  3704                           
  3705                           ; BSR set to: 0
  3706                           ;can\CANlib.h: 720: else
  3707                           ;can\CANlib.h: 721: RXM1SIDLbits.EID17 = 0x00;
  3708  0022D6  010F               	movlb	15	; () banked
  3709  0022D8  931D               	bcf	29,1,b	;volatile
  3710  0022DA                     l422:
  3711                           
  3712                           ; BSR set to: 15
  3713                           ;can\CANlib.h: 723: if (mask & 0x00040000)
  3714  0022DA  0100               	movlb	0	; () banked
  3715  0022DC  A575               	btfss	(CANSetMask@mask+2)& (0+255),2,b
  3716  0022DE  D003               	goto	l423
  3717                           
  3718                           ; BSR set to: 0
  3719                           ;can\CANlib.h: 724: RXM1SIDLbits.SID0 = 0x01;
  3720  0022E0  010F               	movlb	15	; () banked
  3721  0022E2  8B1D               	bsf	29,5,b	;volatile
  3722  0022E4  D002               	goto	l424
  3723  0022E6                     l423:
  3724                           
  3725                           ; BSR set to: 0
  3726                           ;can\CANlib.h: 725: else
  3727                           ;can\CANlib.h: 726: RXM1SIDLbits.SID0 = 0x00;
  3728  0022E6  010F               	movlb	15	; () banked
  3729  0022E8  9B1D               	bcf	29,5,b	;volatile
  3730  0022EA                     l424:
  3731                           
  3732                           ; BSR set to: 15
  3733                           ;can\CANlib.h: 728: if (mask & 0x00080000)
  3734  0022EA  0100               	movlb	0	; () banked
  3735  0022EC  A775               	btfss	(CANSetMask@mask+2)& (0+255),3,b
  3736  0022EE  D003               	goto	l425
  3737                           
  3738                           ; BSR set to: 0
  3739                           ;can\CANlib.h: 729: RXM1SIDLbits.SID1 = 0x01;
  3740  0022F0  010F               	movlb	15	; () banked
  3741  0022F2  8D1D               	bsf	29,6,b	;volatile
  3742  0022F4  D002               	goto	l426
  3743  0022F6                     l425:
  3744                           
  3745                           ; BSR set to: 0
  3746                           ;can\CANlib.h: 730: else
  3747                           ;can\CANlib.h: 731: RXM1SIDLbits.SID1 = 0x00;
  3748  0022F6  010F               	movlb	15	; () banked
  3749  0022F8  9D1D               	bcf	29,6,b	;volatile
  3750  0022FA                     l426:
  3751                           
  3752                           ; BSR set to: 15
  3753                           ;can\CANlib.h: 733: if (mask & 0x00100000)
  3754  0022FA  0100               	movlb	0	; () banked
  3755  0022FC  A975               	btfss	(CANSetMask@mask+2)& (0+255),4,b
  3756  0022FE  D003               	goto	l427
  3757                           
  3758                           ; BSR set to: 0
  3759                           ;can\CANlib.h: 734: RXM1SIDLbits.SID2 = 0x01 ;
  3760  002300  010F               	movlb	15	; () banked
  3761  002302  8F1D               	bsf	29,7,b	;volatile
  3762  002304  D002               	goto	l2693
  3763  002306                     l427:
  3764                           
  3765                           ; BSR set to: 0
  3766                           ;can\CANlib.h: 735: else
  3767                           ;can\CANlib.h: 736: RXM1SIDLbits.SID2 = 0x00 ;
  3768  002306  010F               	movlb	15	; () banked
  3769  002308  9F1D               	bcf	29,7,b	;volatile
  3770  00230A                     l2693:
  3771                           
  3772                           ; BSR set to: 15
  3773                           ;can\CANlib.h: 738: tamp = (mask >> 21);
  3774  00230A  C073  F078         	movff	CANSetMask@mask,??_CANSetMask
  3775  00230E  C074  F079         	movff	CANSetMask@mask+1,??_CANSetMask+1
  3776  002312  C075  F07A         	movff	CANSetMask@mask+2,??_CANSetMask+2
  3777  002316  C076  F07B         	movff	CANSetMask@mask+3,??_CANSetMask+3
  3778  00231A  0E16               	movlw	22
  3779  00231C  D006               	goto	u2620
  3780  00231E                     u2625:
  3781  00231E  0100               	movlb	0	; () banked
  3782  002320  90D8               	bcf	status,0,c
  3783  002322  337B               	rrcf	(??_CANSetMask+3)& (0+255),f,b
  3784  002324  337A               	rrcf	(??_CANSetMask+2)& (0+255),f,b
  3785  002326  3379               	rrcf	(??_CANSetMask+1)& (0+255),f,b
  3786  002328  3378               	rrcf	??_CANSetMask& (0+255),f,b
  3787  00232A                     u2620:
  3788  00232A  2EE8               	decfsz	wreg,f,c
  3789  00232C  D7F8               	goto	u2625
  3790  00232E  C078  F07D         	movff	??_CANSetMask,CANSetMask@tamp
  3791  002332  C079  F07E         	movff	??_CANSetMask+1,CANSetMask@tamp+1
  3792  002336  C07A  F07F         	movff	??_CANSetMask+2,CANSetMask@tamp+2
  3793  00233A  C07B  F080         	movff	??_CANSetMask+3,CANSetMask@tamp+3
  3794                           
  3795                           ; BSR set to: 0
  3796                           ;can\CANlib.h: 739: tamp = tamp & 0x000000FF;
  3797  00233E  0100               	movlb	0	; () banked
  3798  002340  517D               	movf	CANSetMask@tamp& (0+255),w,b
  3799  002342  0100               	movlb	0	; () banked
  3800  002344  6F7D               	movwf	CANSetMask@tamp& (0+255),b
  3801  002346  6B7E               	clrf	(CANSetMask@tamp+1)& (0+255),b
  3802  002348  6B7F               	clrf	(CANSetMask@tamp+2)& (0+255),b
  3803  00234A  6B80               	clrf	(CANSetMask@tamp+3)& (0+255),b
  3804                           
  3805                           ; BSR set to: 0
  3806                           ;can\CANlib.h: 740: RXM1SIDH = (unsigned char) tamp;
  3807  00234C  C07D  FF1C         	movff	CANSetMask@tamp,3868	;volatile
  3808  002350  0012               	return	
  3809  002352                     __end_of_CANSetMask:
  3810                           	opt stack 0
  3811                           tblptru	equ	0xFF8
  3812                           tblptrh	equ	0xFF7
  3813                           tblptrl	equ	0xFF6
  3814                           tablat	equ	0xFF5
  3815                           prodh	equ	0xFF4
  3816                           prodl	equ	0xFF3
  3817                           intcon	equ	0xFF2
  3818                           intcon2	equ	0xFF1
  3819                           postinc0	equ	0xFEE
  3820                           wreg	equ	0xFE8
  3821                           indf2	equ	0xFDF
  3822                           fsr2h	equ	0xFDA
  3823                           fsr2l	equ	0xFD9
  3824                           status	equ	0xFD8
  3825                           
  3826 ;; *************** function _CANSetFilter *****************
  3827 ;; Defined at:
  3828 ;;		line 748 in file "../../Scuola/Triennio/Tesina/can\CANlib.h"
  3829 ;; Parameters:    Size  Location     Type
  3830 ;;  numBuffer       1    wreg     enum E16881
  3831 ;;  filter          4   19[BANK0 ] unsigned long 
  3832 ;;  type            1   23[BANK0 ] enum E16844
  3833 ;; Auto vars:     Size  Location     Type
  3834 ;;  numBuffer       1   28[BANK0 ] enum E16881
  3835 ;;  tamp            4   29[BANK0 ] unsigned long 
  3836 ;; Return value:  Size  Location     Type
  3837 ;;		None               void
  3838 ;; Registers used:
  3839 ;;		wreg, status,2, status,0
  3840 ;; Tracked objects:
  3841 ;;		On entry : 0/0
  3842 ;;		On exit  : 0/0
  3843 ;;		Unchanged: 0/0
  3844 ;; Data sizes:     COMRAM   BANK0   BANK1   BANK2
  3845 ;;      Params:         0       5       0       0
  3846 ;;      Locals:         0       5       0       0
  3847 ;;      Temps:          0       4       0       0
  3848 ;;      Totals:         0      14       0       0
  3849 ;;Total ram usage:       14 bytes
  3850 ;; Hardware stack levels used:    1
  3851 ;; Hardware stack levels required when called:    4
  3852 ;; This function calls:
  3853 ;;		Nothing
  3854 ;; This function is called by:
  3855 ;;		_CANInitialize
  3856 ;; This function uses a non-reentrant model
  3857 ;;
  3858                           
  3859                           	psect	text9
  3860  000186                     __ptext9:
  3861                           	opt stack 0
  3862  000186                     _CANSetFilter:
  3863                           	opt stack 24
  3864                           
  3865                           ; BSR set to: 0
  3866                           ;incstack = 0
  3867                           ;CANSetFilter@numBuffer stored from wreg
  3868  000186  0100               	movlb	0	; () banked
  3869  000188  6F7C               	movwf	CANSetFilter@numBuffer& (0+255),b
  3870                           
  3871                           ;can\CANlib.h: 750: unsigned long tamp;
  3872                           ;can\CANlib.h: 752: if ((numBuffer ==CAN_FILTER_B1_F1) && (type == CAN_CONFIG_STD_MSG))
  3873  00018A  0100               	movlb	0	; () banked
  3874  00018C  517C               	movf	CANSetFilter@numBuffer& (0+255),w,b
  3875  00018E  0100               	movlb	0	; () banked
  3876  000190  A4D8               	btfss	status,2,c
  3877  000192  D058               	goto	l2717
  3878                           
  3879                           ; BSR set to: 0
  3880  000194  0100               	movlb	0	; () banked
  3881  000196  2977               	incf	CANSetFilter@type& (0+255),w,b
  3882  000198  A4D8               	btfss	status,2,c
  3883  00019A  D054               	goto	l2717
  3884                           
  3885                           ; BSR set to: 0
  3886                           ;can\CANlib.h: 753: {
  3887                           ;can\CANlib.h: 754: RXF0SIDLbits.EXIDEN = 0x00;
  3888  00019C  010F               	movlb	15	; () banked
  3889  00019E  9701               	bcf	1,3,b	;volatile
  3890                           
  3891                           ; BSR set to: 15
  3892                           ;can\CANlib.h: 756: tamp = (filter >> 3);
  3893  0001A0  C073  F078         	movff	CANSetFilter@filter,??_CANSetFilter
  3894  0001A4  C074  F079         	movff	CANSetFilter@filter+1,??_CANSetFilter+1
  3895  0001A8  C075  F07A         	movff	CANSetFilter@filter+2,??_CANSetFilter+2
  3896  0001AC  C076  F07B         	movff	CANSetFilter@filter+3,??_CANSetFilter+3
  3897  0001B0  0E04               	movlw	4
  3898  0001B2  D006               	goto	u2650
  3899  0001B4                     u2655:
  3900  0001B4  0100               	movlb	0	; () banked
  3901  0001B6  90D8               	bcf	status,0,c
  3902  0001B8  337B               	rrcf	(??_CANSetFilter+3)& (0+255),f,b
  3903  0001BA  337A               	rrcf	(??_CANSetFilter+2)& (0+255),f,b
  3904  0001BC  3379               	rrcf	(??_CANSetFilter+1)& (0+255),f,b
  3905  0001BE  3378               	rrcf	??_CANSetFilter& (0+255),f,b
  3906  0001C0                     u2650:
  3907  0001C0  2EE8               	decfsz	wreg,f,c
  3908  0001C2  D7F8               	goto	u2655
  3909  0001C4  C078  F07D         	movff	??_CANSetFilter,CANSetFilter@tamp
  3910  0001C8  C079  F07E         	movff	??_CANSetFilter+1,CANSetFilter@tamp+1
  3911  0001CC  C07A  F07F         	movff	??_CANSetFilter+2,CANSetFilter@tamp+2
  3912  0001D0  C07B  F080         	movff	??_CANSetFilter+3,CANSetFilter@tamp+3
  3913                           
  3914                           ; BSR set to: 0
  3915                           ;can\CANlib.h: 757: tamp = tamp & 0x000000FF;
  3916  0001D4  0100               	movlb	0	; () banked
  3917  0001D6  517D               	movf	CANSetFilter@tamp& (0+255),w,b
  3918  0001D8  0100               	movlb	0	; () banked
  3919  0001DA  6F7D               	movwf	CANSetFilter@tamp& (0+255),b
  3920  0001DC  6B7E               	clrf	(CANSetFilter@tamp+1)& (0+255),b
  3921  0001DE  6B7F               	clrf	(CANSetFilter@tamp+2)& (0+255),b
  3922  0001E0  6B80               	clrf	(CANSetFilter@tamp+3)& (0+255),b
  3923                           
  3924                           ; BSR set to: 0
  3925                           ;can\CANlib.h: 758: RXF0SIDH = (unsigned char) tamp;
  3926  0001E2  C07D  FF00         	movff	CANSetFilter@tamp,3840	;volatile
  3927                           
  3928                           ; BSR set to: 0
  3929                           ;can\CANlib.h: 760: tamp = filter & 0x00000007;
  3930  0001E6  0E07               	movlw	7
  3931  0001E8  0100               	movlb	0	; () banked
  3932  0001EA  1573               	andwf	CANSetFilter@filter& (0+255),w,b
  3933  0001EC  0100               	movlb	0	; () banked
  3934  0001EE  6F7D               	movwf	CANSetFilter@tamp& (0+255),b
  3935  0001F0  0E00               	movlw	0
  3936  0001F2  0100               	movlb	0	; () banked
  3937  0001F4  1574               	andwf	(CANSetFilter@filter+1)& (0+255),w,b
  3938  0001F6  0100               	movlb	0	; () banked
  3939  0001F8  6F7E               	movwf	(CANSetFilter@tamp+1)& (0+255),b
  3940  0001FA  0E00               	movlw	0
  3941  0001FC  0100               	movlb	0	; () banked
  3942  0001FE  1575               	andwf	(CANSetFilter@filter+2)& (0+255),w,b
  3943  000200  0100               	movlb	0	; () banked
  3944  000202  6F7F               	movwf	(CANSetFilter@tamp+2)& (0+255),b
  3945  000204  0E00               	movlw	0
  3946  000206  0100               	movlb	0	; () banked
  3947  000208  1576               	andwf	(CANSetFilter@filter+3)& (0+255),w,b
  3948  00020A  0100               	movlb	0	; () banked
  3949  00020C  6F80               	movwf	(CANSetFilter@tamp+3)& (0+255),b
  3950                           
  3951                           ; BSR set to: 0
  3952                           ;can\CANlib.h: 761: tamp = tamp << 5;
  3953  00020E  C07D  F078         	movff	CANSetFilter@tamp,??_CANSetFilter
  3954  000212  C07E  F079         	movff	CANSetFilter@tamp+1,??_CANSetFilter+1
  3955  000216  C07F  F07A         	movff	CANSetFilter@tamp+2,??_CANSetFilter+2
  3956  00021A  C080  F07B         	movff	CANSetFilter@tamp+3,??_CANSetFilter+3
  3957  00021E  0E05               	movlw	5
  3958  000220                     u2665:
  3959  000220  90D8               	bcf	status,0,c
  3960  000222  0100               	movlb	0	; () banked
  3961  000224  3778               	rlcf	??_CANSetFilter& (0+255),f,b
  3962  000226  3779               	rlcf	(??_CANSetFilter+1)& (0+255),f,b
  3963  000228  377A               	rlcf	(??_CANSetFilter+2)& (0+255),f,b
  3964  00022A  377B               	rlcf	(??_CANSetFilter+3)& (0+255),f,b
  3965  00022C  2EE8               	decfsz	wreg,f,c
  3966  00022E  D7F8               	goto	u2665
  3967  000230  C078  F07D         	movff	??_CANSetFilter,CANSetFilter@tamp
  3968  000234  C079  F07E         	movff	??_CANSetFilter+1,CANSetFilter@tamp+1
  3969  000238  C07A  F07F         	movff	??_CANSetFilter+2,CANSetFilter@tamp+2
  3970  00023C  C07B  F080         	movff	??_CANSetFilter+3,CANSetFilter@tamp+3
  3971                           
  3972                           ; BSR set to: 0
  3973                           ;can\CANlib.h: 762: RXF0SIDL = (unsigned char) tamp;
  3974  000240  C07D  FF01         	movff	CANSetFilter@tamp,3841	;volatile
  3975  000244                     l2717:
  3976                           
  3977                           ; BSR set to: 0
  3978                           ;can\CANlib.h: 763: }
  3979                           ;can\CANlib.h: 765: if ((numBuffer ==CAN_FILTER_B1_F2) && (type == CAN_CONFIG_STD_MSG))
  3980  000244  0100               	movlb	0	; () banked
  3981  000246  057C               	decf	CANSetFilter@numBuffer& (0+255),w,b
  3982  000248  A4D8               	btfss	status,2,c
  3983  00024A  D058               	goto	l2735
  3984                           
  3985                           ; BSR set to: 0
  3986  00024C  0100               	movlb	0	; () banked
  3987  00024E  2977               	incf	CANSetFilter@type& (0+255),w,b
  3988  000250  A4D8               	btfss	status,2,c
  3989  000252  D054               	goto	l2735
  3990                           
  3991                           ; BSR set to: 0
  3992                           ;can\CANlib.h: 766: {
  3993                           ;can\CANlib.h: 767: RXF1SIDLbits.EXIDEN = 0x00;
  3994  000254  010F               	movlb	15	; () banked
  3995  000256  9705               	bcf	5,3,b	;volatile
  3996                           
  3997                           ; BSR set to: 15
  3998                           ;can\CANlib.h: 769: tamp = (filter >> 3);
  3999  000258  C073  F078         	movff	CANSetFilter@filter,??_CANSetFilter
  4000  00025C  C074  F079         	movff	CANSetFilter@filter+1,??_CANSetFilter+1
  4001  000260  C075  F07A         	movff	CANSetFilter@filter+2,??_CANSetFilter+2
  4002  000264  C076  F07B         	movff	CANSetFilter@filter+3,??_CANSetFilter+3
  4003  000268  0E04               	movlw	4
  4004  00026A  D006               	goto	u2690
  4005  00026C                     u2695:
  4006  00026C  0100               	movlb	0	; () banked
  4007  00026E  90D8               	bcf	status,0,c
  4008  000270  337B               	rrcf	(??_CANSetFilter+3)& (0+255),f,b
  4009  000272  337A               	rrcf	(??_CANSetFilter+2)& (0+255),f,b
  4010  000274  3379               	rrcf	(??_CANSetFilter+1)& (0+255),f,b
  4011  000276  3378               	rrcf	??_CANSetFilter& (0+255),f,b
  4012  000278                     u2690:
  4013  000278  2EE8               	decfsz	wreg,f,c
  4014  00027A  D7F8               	goto	u2695
  4015  00027C  C078  F07D         	movff	??_CANSetFilter,CANSetFilter@tamp
  4016  000280  C079  F07E         	movff	??_CANSetFilter+1,CANSetFilter@tamp+1
  4017  000284  C07A  F07F         	movff	??_CANSetFilter+2,CANSetFilter@tamp+2
  4018  000288  C07B  F080         	movff	??_CANSetFilter+3,CANSetFilter@tamp+3
  4019                           
  4020                           ; BSR set to: 0
  4021                           ;can\CANlib.h: 770: tamp = tamp & 0x000000FF;
  4022  00028C  0100               	movlb	0	; () banked
  4023  00028E  517D               	movf	CANSetFilter@tamp& (0+255),w,b
  4024  000290  0100               	movlb	0	; () banked
  4025  000292  6F7D               	movwf	CANSetFilter@tamp& (0+255),b
  4026  000294  6B7E               	clrf	(CANSetFilter@tamp+1)& (0+255),b
  4027  000296  6B7F               	clrf	(CANSetFilter@tamp+2)& (0+255),b
  4028  000298  6B80               	clrf	(CANSetFilter@tamp+3)& (0+255),b
  4029                           
  4030                           ; BSR set to: 0
  4031                           ;can\CANlib.h: 771: RXF1SIDH = (unsigned char) tamp;
  4032  00029A  C07D  FF04         	movff	CANSetFilter@tamp,3844	;volatile
  4033                           
  4034                           ; BSR set to: 0
  4035                           ;can\CANlib.h: 773: tamp = filter & 0x00000007;
  4036  00029E  0E07               	movlw	7
  4037  0002A0  0100               	movlb	0	; () banked
  4038  0002A2  1573               	andwf	CANSetFilter@filter& (0+255),w,b
  4039  0002A4  0100               	movlb	0	; () banked
  4040  0002A6  6F7D               	movwf	CANSetFilter@tamp& (0+255),b
  4041  0002A8  0E00               	movlw	0
  4042  0002AA  0100               	movlb	0	; () banked
  4043  0002AC  1574               	andwf	(CANSetFilter@filter+1)& (0+255),w,b
  4044  0002AE  0100               	movlb	0	; () banked
  4045  0002B0  6F7E               	movwf	(CANSetFilter@tamp+1)& (0+255),b
  4046  0002B2  0E00               	movlw	0
  4047  0002B4  0100               	movlb	0	; () banked
  4048  0002B6  1575               	andwf	(CANSetFilter@filter+2)& (0+255),w,b
  4049  0002B8  0100               	movlb	0	; () banked
  4050  0002BA  6F7F               	movwf	(CANSetFilter@tamp+2)& (0+255),b
  4051  0002BC  0E00               	movlw	0
  4052  0002BE  0100               	movlb	0	; () banked
  4053  0002C0  1576               	andwf	(CANSetFilter@filter+3)& (0+255),w,b
  4054  0002C2  0100               	movlb	0	; () banked
  4055  0002C4  6F80               	movwf	(CANSetFilter@tamp+3)& (0+255),b
  4056                           
  4057                           ; BSR set to: 0
  4058                           ;can\CANlib.h: 774: tamp = tamp << 5;
  4059  0002C6  C07D  F078         	movff	CANSetFilter@tamp,??_CANSetFilter
  4060  0002CA  C07E  F079         	movff	CANSetFilter@tamp+1,??_CANSetFilter+1
  4061  0002CE  C07F  F07A         	movff	CANSetFilter@tamp+2,??_CANSetFilter+2
  4062  0002D2  C080  F07B         	movff	CANSetFilter@tamp+3,??_CANSetFilter+3
  4063  0002D6  0E05               	movlw	5
  4064  0002D8                     u2705:
  4065  0002D8  90D8               	bcf	status,0,c
  4066  0002DA  0100               	movlb	0	; () banked
  4067  0002DC  3778               	rlcf	??_CANSetFilter& (0+255),f,b
  4068  0002DE  3779               	rlcf	(??_CANSetFilter+1)& (0+255),f,b
  4069  0002E0  377A               	rlcf	(??_CANSetFilter+2)& (0+255),f,b
  4070  0002E2  377B               	rlcf	(??_CANSetFilter+3)& (0+255),f,b
  4071  0002E4  2EE8               	decfsz	wreg,f,c
  4072  0002E6  D7F8               	goto	u2705
  4073  0002E8  C078  F07D         	movff	??_CANSetFilter,CANSetFilter@tamp
  4074  0002EC  C079  F07E         	movff	??_CANSetFilter+1,CANSetFilter@tamp+1
  4075  0002F0  C07A  F07F         	movff	??_CANSetFilter+2,CANSetFilter@tamp+2
  4076  0002F4  C07B  F080         	movff	??_CANSetFilter+3,CANSetFilter@tamp+3
  4077                           
  4078                           ; BSR set to: 0
  4079                           ;can\CANlib.h: 775: RXF1SIDL = (unsigned char) tamp;
  4080  0002F8  C07D  FF05         	movff	CANSetFilter@tamp,3845	;volatile
  4081  0002FC                     l2735:
  4082                           
  4083                           ; BSR set to: 0
  4084                           ;can\CANlib.h: 776: }
  4085                           ;can\CANlib.h: 778: if ((numBuffer ==CAN_FILTER_B2_F1) && (type == CAN_CONFIG_STD_MSG))
  4086  0002FC  0E02               	movlw	2
  4087  0002FE  0100               	movlb	0	; () banked
  4088  000300  197C               	xorwf	CANSetFilter@numBuffer& (0+255),w,b
  4089  000302  A4D8               	btfss	status,2,c
  4090  000304  D058               	goto	l2753
  4091                           
  4092                           ; BSR set to: 0
  4093  000306  0100               	movlb	0	; () banked
  4094  000308  2977               	incf	CANSetFilter@type& (0+255),w,b
  4095  00030A  A4D8               	btfss	status,2,c
  4096  00030C  D054               	goto	l2753
  4097                           
  4098                           ; BSR set to: 0
  4099                           ;can\CANlib.h: 779: {
  4100                           ;can\CANlib.h: 780: RXF2SIDLbits.EXIDEN = 0x00;
  4101  00030E  010F               	movlb	15	; () banked
  4102  000310  9709               	bcf	9,3,b	;volatile
  4103                           
  4104                           ; BSR set to: 15
  4105                           ;can\CANlib.h: 782: tamp = (filter >> 3);
  4106  000312  C073  F078         	movff	CANSetFilter@filter,??_CANSetFilter
  4107  000316  C074  F079         	movff	CANSetFilter@filter+1,??_CANSetFilter+1
  4108  00031A  C075  F07A         	movff	CANSetFilter@filter+2,??_CANSetFilter+2
  4109  00031E  C076  F07B         	movff	CANSetFilter@filter+3,??_CANSetFilter+3
  4110  000322  0E04               	movlw	4
  4111  000324  D006               	goto	u2730
  4112  000326                     u2735:
  4113  000326  0100               	movlb	0	; () banked
  4114  000328  90D8               	bcf	status,0,c
  4115  00032A  337B               	rrcf	(??_CANSetFilter+3)& (0+255),f,b
  4116  00032C  337A               	rrcf	(??_CANSetFilter+2)& (0+255),f,b
  4117  00032E  3379               	rrcf	(??_CANSetFilter+1)& (0+255),f,b
  4118  000330  3378               	rrcf	??_CANSetFilter& (0+255),f,b
  4119  000332                     u2730:
  4120  000332  2EE8               	decfsz	wreg,f,c
  4121  000334  D7F8               	goto	u2735
  4122  000336  C078  F07D         	movff	??_CANSetFilter,CANSetFilter@tamp
  4123  00033A  C079  F07E         	movff	??_CANSetFilter+1,CANSetFilter@tamp+1
  4124  00033E  C07A  F07F         	movff	??_CANSetFilter+2,CANSetFilter@tamp+2
  4125  000342  C07B  F080         	movff	??_CANSetFilter+3,CANSetFilter@tamp+3
  4126                           
  4127                           ; BSR set to: 0
  4128                           ;can\CANlib.h: 783: tamp = tamp & 0x000000FF;
  4129  000346  0100               	movlb	0	; () banked
  4130  000348  517D               	movf	CANSetFilter@tamp& (0+255),w,b
  4131  00034A  0100               	movlb	0	; () banked
  4132  00034C  6F7D               	movwf	CANSetFilter@tamp& (0+255),b
  4133  00034E  6B7E               	clrf	(CANSetFilter@tamp+1)& (0+255),b
  4134  000350  6B7F               	clrf	(CANSetFilter@tamp+2)& (0+255),b
  4135  000352  6B80               	clrf	(CANSetFilter@tamp+3)& (0+255),b
  4136                           
  4137                           ; BSR set to: 0
  4138                           ;can\CANlib.h: 784: RXF2SIDH = (unsigned char) tamp;
  4139  000354  C07D  FF08         	movff	CANSetFilter@tamp,3848	;volatile
  4140                           
  4141                           ; BSR set to: 0
  4142                           ;can\CANlib.h: 786: tamp = filter & 0x00000007;
  4143  000358  0E07               	movlw	7
  4144  00035A  0100               	movlb	0	; () banked
  4145  00035C  1573               	andwf	CANSetFilter@filter& (0+255),w,b
  4146  00035E  0100               	movlb	0	; () banked
  4147  000360  6F7D               	movwf	CANSetFilter@tamp& (0+255),b
  4148  000362  0E00               	movlw	0
  4149  000364  0100               	movlb	0	; () banked
  4150  000366  1574               	andwf	(CANSetFilter@filter+1)& (0+255),w,b
  4151  000368  0100               	movlb	0	; () banked
  4152  00036A  6F7E               	movwf	(CANSetFilter@tamp+1)& (0+255),b
  4153  00036C  0E00               	movlw	0
  4154  00036E  0100               	movlb	0	; () banked
  4155  000370  1575               	andwf	(CANSetFilter@filter+2)& (0+255),w,b
  4156  000372  0100               	movlb	0	; () banked
  4157  000374  6F7F               	movwf	(CANSetFilter@tamp+2)& (0+255),b
  4158  000376  0E00               	movlw	0
  4159  000378  0100               	movlb	0	; () banked
  4160  00037A  1576               	andwf	(CANSetFilter@filter+3)& (0+255),w,b
  4161  00037C  0100               	movlb	0	; () banked
  4162  00037E  6F80               	movwf	(CANSetFilter@tamp+3)& (0+255),b
  4163                           
  4164                           ; BSR set to: 0
  4165                           ;can\CANlib.h: 787: tamp = tamp << 5;
  4166  000380  C07D  F078         	movff	CANSetFilter@tamp,??_CANSetFilter
  4167  000384  C07E  F079         	movff	CANSetFilter@tamp+1,??_CANSetFilter+1
  4168  000388  C07F  F07A         	movff	CANSetFilter@tamp+2,??_CANSetFilter+2
  4169  00038C  C080  F07B         	movff	CANSetFilter@tamp+3,??_CANSetFilter+3
  4170  000390  0E05               	movlw	5
  4171  000392                     u2745:
  4172  000392  90D8               	bcf	status,0,c
  4173  000394  0100               	movlb	0	; () banked
  4174  000396  3778               	rlcf	??_CANSetFilter& (0+255),f,b
  4175  000398  3779               	rlcf	(??_CANSetFilter+1)& (0+255),f,b
  4176  00039A  377A               	rlcf	(??_CANSetFilter+2)& (0+255),f,b
  4177  00039C  377B               	rlcf	(??_CANSetFilter+3)& (0+255),f,b
  4178  00039E  2EE8               	decfsz	wreg,f,c
  4179  0003A0  D7F8               	goto	u2745
  4180  0003A2  C078  F07D         	movff	??_CANSetFilter,CANSetFilter@tamp
  4181  0003A6  C079  F07E         	movff	??_CANSetFilter+1,CANSetFilter@tamp+1
  4182  0003AA  C07A  F07F         	movff	??_CANSetFilter+2,CANSetFilter@tamp+2
  4183  0003AE  C07B  F080         	movff	??_CANSetFilter+3,CANSetFilter@tamp+3
  4184                           
  4185                           ; BSR set to: 0
  4186                           ;can\CANlib.h: 788: RXF2SIDL = (unsigned char) tamp;
  4187  0003B2  C07D  FF09         	movff	CANSetFilter@tamp,3849	;volatile
  4188  0003B6                     l2753:
  4189                           
  4190                           ; BSR set to: 0
  4191                           ;can\CANlib.h: 789: }
  4192                           ;can\CANlib.h: 791: if ((numBuffer ==CAN_FILTER_B2_F2) && (type == CAN_CONFIG_STD_MSG))
  4193  0003B6  0E03               	movlw	3
  4194  0003B8  0100               	movlb	0	; () banked
  4195  0003BA  197C               	xorwf	CANSetFilter@numBuffer& (0+255),w,b
  4196  0003BC  A4D8               	btfss	status,2,c
  4197  0003BE  D058               	goto	l2771
  4198                           
  4199                           ; BSR set to: 0
  4200  0003C0  0100               	movlb	0	; () banked
  4201  0003C2  2977               	incf	CANSetFilter@type& (0+255),w,b
  4202  0003C4  A4D8               	btfss	status,2,c
  4203  0003C6  D054               	goto	l2771
  4204                           
  4205                           ; BSR set to: 0
  4206                           ;can\CANlib.h: 792: {
  4207                           ;can\CANlib.h: 793: RXF3SIDLbits.EXIDEN = 0x00;
  4208  0003C8  010F               	movlb	15	; () banked
  4209  0003CA  970D               	bcf	13,3,b	;volatile
  4210                           
  4211                           ; BSR set to: 15
  4212                           ;can\CANlib.h: 795: tamp = (filter >> 3);
  4213  0003CC  C073  F078         	movff	CANSetFilter@filter,??_CANSetFilter
  4214  0003D0  C074  F079         	movff	CANSetFilter@filter+1,??_CANSetFilter+1
  4215  0003D4  C075  F07A         	movff	CANSetFilter@filter+2,??_CANSetFilter+2
  4216  0003D8  C076  F07B         	movff	CANSetFilter@filter+3,??_CANSetFilter+3
  4217  0003DC  0E04               	movlw	4
  4218  0003DE  D006               	goto	u2770
  4219  0003E0                     u2775:
  4220  0003E0  0100               	movlb	0	; () banked
  4221  0003E2  90D8               	bcf	status,0,c
  4222  0003E4  337B               	rrcf	(??_CANSetFilter+3)& (0+255),f,b
  4223  0003E6  337A               	rrcf	(??_CANSetFilter+2)& (0+255),f,b
  4224  0003E8  3379               	rrcf	(??_CANSetFilter+1)& (0+255),f,b
  4225  0003EA  3378               	rrcf	??_CANSetFilter& (0+255),f,b
  4226  0003EC                     u2770:
  4227  0003EC  2EE8               	decfsz	wreg,f,c
  4228  0003EE  D7F8               	goto	u2775
  4229  0003F0  C078  F07D         	movff	??_CANSetFilter,CANSetFilter@tamp
  4230  0003F4  C079  F07E         	movff	??_CANSetFilter+1,CANSetFilter@tamp+1
  4231  0003F8  C07A  F07F         	movff	??_CANSetFilter+2,CANSetFilter@tamp+2
  4232  0003FC  C07B  F080         	movff	??_CANSetFilter+3,CANSetFilter@tamp+3
  4233                           
  4234                           ; BSR set to: 0
  4235                           ;can\CANlib.h: 796: tamp = tamp & 0x000000FF;
  4236  000400  0100               	movlb	0	; () banked
  4237  000402  517D               	movf	CANSetFilter@tamp& (0+255),w,b
  4238  000404  0100               	movlb	0	; () banked
  4239  000406  6F7D               	movwf	CANSetFilter@tamp& (0+255),b
  4240  000408  6B7E               	clrf	(CANSetFilter@tamp+1)& (0+255),b
  4241  00040A  6B7F               	clrf	(CANSetFilter@tamp+2)& (0+255),b
  4242  00040C  6B80               	clrf	(CANSetFilter@tamp+3)& (0+255),b
  4243                           
  4244                           ; BSR set to: 0
  4245                           ;can\CANlib.h: 797: RXF3SIDH = (unsigned char) tamp;
  4246  00040E  C07D  FF0C         	movff	CANSetFilter@tamp,3852	;volatile
  4247                           
  4248                           ; BSR set to: 0
  4249                           ;can\CANlib.h: 799: tamp = filter & 0x00000007;
  4250  000412  0E07               	movlw	7
  4251  000414  0100               	movlb	0	; () banked
  4252  000416  1573               	andwf	CANSetFilter@filter& (0+255),w,b
  4253  000418  0100               	movlb	0	; () banked
  4254  00041A  6F7D               	movwf	CANSetFilter@tamp& (0+255),b
  4255  00041C  0E00               	movlw	0
  4256  00041E  0100               	movlb	0	; () banked
  4257  000420  1574               	andwf	(CANSetFilter@filter+1)& (0+255),w,b
  4258  000422  0100               	movlb	0	; () banked
  4259  000424  6F7E               	movwf	(CANSetFilter@tamp+1)& (0+255),b
  4260  000426  0E00               	movlw	0
  4261  000428  0100               	movlb	0	; () banked
  4262  00042A  1575               	andwf	(CANSetFilter@filter+2)& (0+255),w,b
  4263  00042C  0100               	movlb	0	; () banked
  4264  00042E  6F7F               	movwf	(CANSetFilter@tamp+2)& (0+255),b
  4265  000430  0E00               	movlw	0
  4266  000432  0100               	movlb	0	; () banked
  4267  000434  1576               	andwf	(CANSetFilter@filter+3)& (0+255),w,b
  4268  000436  0100               	movlb	0	; () banked
  4269  000438  6F80               	movwf	(CANSetFilter@tamp+3)& (0+255),b
  4270                           
  4271                           ; BSR set to: 0
  4272                           ;can\CANlib.h: 800: tamp = tamp << 5;
  4273  00043A  C07D  F078         	movff	CANSetFilter@tamp,??_CANSetFilter
  4274  00043E  C07E  F079         	movff	CANSetFilter@tamp+1,??_CANSetFilter+1
  4275  000442  C07F  F07A         	movff	CANSetFilter@tamp+2,??_CANSetFilter+2
  4276  000446  C080  F07B         	movff	CANSetFilter@tamp+3,??_CANSetFilter+3
  4277  00044A  0E05               	movlw	5
  4278  00044C                     u2785:
  4279  00044C  90D8               	bcf	status,0,c
  4280  00044E  0100               	movlb	0	; () banked
  4281  000450  3778               	rlcf	??_CANSetFilter& (0+255),f,b
  4282  000452  3779               	rlcf	(??_CANSetFilter+1)& (0+255),f,b
  4283  000454  377A               	rlcf	(??_CANSetFilter+2)& (0+255),f,b
  4284  000456  377B               	rlcf	(??_CANSetFilter+3)& (0+255),f,b
  4285  000458  2EE8               	decfsz	wreg,f,c
  4286  00045A  D7F8               	goto	u2785
  4287  00045C  C078  F07D         	movff	??_CANSetFilter,CANSetFilter@tamp
  4288  000460  C079  F07E         	movff	??_CANSetFilter+1,CANSetFilter@tamp+1
  4289  000464  C07A  F07F         	movff	??_CANSetFilter+2,CANSetFilter@tamp+2
  4290  000468  C07B  F080         	movff	??_CANSetFilter+3,CANSetFilter@tamp+3
  4291                           
  4292                           ; BSR set to: 0
  4293                           ;can\CANlib.h: 801: RXF3SIDL = (unsigned char) tamp;
  4294  00046C  C07D  FF0D         	movff	CANSetFilter@tamp,3853	;volatile
  4295  000470                     l2771:
  4296                           
  4297                           ; BSR set to: 0
  4298                           ;can\CANlib.h: 802: }
  4299                           ;can\CANlib.h: 804: if ((numBuffer ==CAN_FILTER_B2_F3) && (type == CAN_CONFIG_STD_MSG))
  4300  000470  0E04               	movlw	4
  4301  000472  0100               	movlb	0	; () banked
  4302  000474  197C               	xorwf	CANSetFilter@numBuffer& (0+255),w,b
  4303  000476  A4D8               	btfss	status,2,c
  4304  000478  D058               	goto	l2789
  4305                           
  4306                           ; BSR set to: 0
  4307  00047A  0100               	movlb	0	; () banked
  4308  00047C  2977               	incf	CANSetFilter@type& (0+255),w,b
  4309  00047E  A4D8               	btfss	status,2,c
  4310  000480  D054               	goto	l2789
  4311                           
  4312                           ; BSR set to: 0
  4313                           ;can\CANlib.h: 805: {
  4314                           ;can\CANlib.h: 806: RXF4SIDLbits.EXIDEN = 0x00;
  4315  000482  010F               	movlb	15	; () banked
  4316  000484  9711               	bcf	17,3,b	;volatile
  4317                           
  4318                           ; BSR set to: 15
  4319                           ;can\CANlib.h: 808: tamp = (filter >> 3);
  4320  000486  C073  F078         	movff	CANSetFilter@filter,??_CANSetFilter
  4321  00048A  C074  F079         	movff	CANSetFilter@filter+1,??_CANSetFilter+1
  4322  00048E  C075  F07A         	movff	CANSetFilter@filter+2,??_CANSetFilter+2
  4323  000492  C076  F07B         	movff	CANSetFilter@filter+3,??_CANSetFilter+3
  4324  000496  0E04               	movlw	4
  4325  000498  D006               	goto	u2810
  4326  00049A                     u2815:
  4327  00049A  0100               	movlb	0	; () banked
  4328  00049C  90D8               	bcf	status,0,c
  4329  00049E  337B               	rrcf	(??_CANSetFilter+3)& (0+255),f,b
  4330  0004A0  337A               	rrcf	(??_CANSetFilter+2)& (0+255),f,b
  4331  0004A2  3379               	rrcf	(??_CANSetFilter+1)& (0+255),f,b
  4332  0004A4  3378               	rrcf	??_CANSetFilter& (0+255),f,b
  4333  0004A6                     u2810:
  4334  0004A6  2EE8               	decfsz	wreg,f,c
  4335  0004A8  D7F8               	goto	u2815
  4336  0004AA  C078  F07D         	movff	??_CANSetFilter,CANSetFilter@tamp
  4337  0004AE  C079  F07E         	movff	??_CANSetFilter+1,CANSetFilter@tamp+1
  4338  0004B2  C07A  F07F         	movff	??_CANSetFilter+2,CANSetFilter@tamp+2
  4339  0004B6  C07B  F080         	movff	??_CANSetFilter+3,CANSetFilter@tamp+3
  4340                           
  4341                           ; BSR set to: 0
  4342                           ;can\CANlib.h: 809: tamp = tamp & 0x000000FF;
  4343  0004BA  0100               	movlb	0	; () banked
  4344  0004BC  517D               	movf	CANSetFilter@tamp& (0+255),w,b
  4345  0004BE  0100               	movlb	0	; () banked
  4346  0004C0  6F7D               	movwf	CANSetFilter@tamp& (0+255),b
  4347  0004C2  6B7E               	clrf	(CANSetFilter@tamp+1)& (0+255),b
  4348  0004C4  6B7F               	clrf	(CANSetFilter@tamp+2)& (0+255),b
  4349  0004C6  6B80               	clrf	(CANSetFilter@tamp+3)& (0+255),b
  4350                           
  4351                           ; BSR set to: 0
  4352                           ;can\CANlib.h: 810: RXF4SIDH = (unsigned char) tamp;
  4353  0004C8  C07D  FF10         	movff	CANSetFilter@tamp,3856	;volatile
  4354                           
  4355                           ; BSR set to: 0
  4356                           ;can\CANlib.h: 812: tamp = filter & 0x00000007;
  4357  0004CC  0E07               	movlw	7
  4358  0004CE  0100               	movlb	0	; () banked
  4359  0004D0  1573               	andwf	CANSetFilter@filter& (0+255),w,b
  4360  0004D2  0100               	movlb	0	; () banked
  4361  0004D4  6F7D               	movwf	CANSetFilter@tamp& (0+255),b
  4362  0004D6  0E00               	movlw	0
  4363  0004D8  0100               	movlb	0	; () banked
  4364  0004DA  1574               	andwf	(CANSetFilter@filter+1)& (0+255),w,b
  4365  0004DC  0100               	movlb	0	; () banked
  4366  0004DE  6F7E               	movwf	(CANSetFilter@tamp+1)& (0+255),b
  4367  0004E0  0E00               	movlw	0
  4368  0004E2  0100               	movlb	0	; () banked
  4369  0004E4  1575               	andwf	(CANSetFilter@filter+2)& (0+255),w,b
  4370  0004E6  0100               	movlb	0	; () banked
  4371  0004E8  6F7F               	movwf	(CANSetFilter@tamp+2)& (0+255),b
  4372  0004EA  0E00               	movlw	0
  4373  0004EC  0100               	movlb	0	; () banked
  4374  0004EE  1576               	andwf	(CANSetFilter@filter+3)& (0+255),w,b
  4375  0004F0  0100               	movlb	0	; () banked
  4376  0004F2  6F80               	movwf	(CANSetFilter@tamp+3)& (0+255),b
  4377                           
  4378                           ; BSR set to: 0
  4379                           ;can\CANlib.h: 813: tamp = tamp << 5;
  4380  0004F4  C07D  F078         	movff	CANSetFilter@tamp,??_CANSetFilter
  4381  0004F8  C07E  F079         	movff	CANSetFilter@tamp+1,??_CANSetFilter+1
  4382  0004FC  C07F  F07A         	movff	CANSetFilter@tamp+2,??_CANSetFilter+2
  4383  000500  C080  F07B         	movff	CANSetFilter@tamp+3,??_CANSetFilter+3
  4384  000504  0E05               	movlw	5
  4385  000506                     u2825:
  4386  000506  90D8               	bcf	status,0,c
  4387  000508  0100               	movlb	0	; () banked
  4388  00050A  3778               	rlcf	??_CANSetFilter& (0+255),f,b
  4389  00050C  3779               	rlcf	(??_CANSetFilter+1)& (0+255),f,b
  4390  00050E  377A               	rlcf	(??_CANSetFilter+2)& (0+255),f,b
  4391  000510  377B               	rlcf	(??_CANSetFilter+3)& (0+255),f,b
  4392  000512  2EE8               	decfsz	wreg,f,c
  4393  000514  D7F8               	goto	u2825
  4394  000516  C078  F07D         	movff	??_CANSetFilter,CANSetFilter@tamp
  4395  00051A  C079  F07E         	movff	??_CANSetFilter+1,CANSetFilter@tamp+1
  4396  00051E  C07A  F07F         	movff	??_CANSetFilter+2,CANSetFilter@tamp+2
  4397  000522  C07B  F080         	movff	??_CANSetFilter+3,CANSetFilter@tamp+3
  4398                           
  4399                           ; BSR set to: 0
  4400                           ;can\CANlib.h: 814: RXF4SIDL = (unsigned char) tamp;
  4401  000526  C07D  FF11         	movff	CANSetFilter@tamp,3857	;volatile
  4402  00052A                     l2789:
  4403                           
  4404                           ; BSR set to: 0
  4405                           ;can\CANlib.h: 815: }
  4406                           ;can\CANlib.h: 817: if ((numBuffer ==CAN_FILTER_B2_F4) && (type == CAN_CONFIG_STD_MSG))
  4407  00052A  0E05               	movlw	5
  4408  00052C  0100               	movlb	0	; () banked
  4409  00052E  197C               	xorwf	CANSetFilter@numBuffer& (0+255),w,b
  4410  000530  A4D8               	btfss	status,2,c
  4411  000532  D058               	goto	l2807
  4412                           
  4413                           ; BSR set to: 0
  4414  000534  0100               	movlb	0	; () banked
  4415  000536  2977               	incf	CANSetFilter@type& (0+255),w,b
  4416  000538  A4D8               	btfss	status,2,c
  4417  00053A  D054               	goto	l2807
  4418                           
  4419                           ; BSR set to: 0
  4420                           ;can\CANlib.h: 818: {
  4421                           ;can\CANlib.h: 819: RXF5SIDLbits.EXIDEN = 0x00;
  4422  00053C  010F               	movlb	15	; () banked
  4423  00053E  9715               	bcf	21,3,b	;volatile
  4424                           
  4425                           ; BSR set to: 15
  4426                           ;can\CANlib.h: 821: tamp = (filter >> 3);
  4427  000540  C073  F078         	movff	CANSetFilter@filter,??_CANSetFilter
  4428  000544  C074  F079         	movff	CANSetFilter@filter+1,??_CANSetFilter+1
  4429  000548  C075  F07A         	movff	CANSetFilter@filter+2,??_CANSetFilter+2
  4430  00054C  C076  F07B         	movff	CANSetFilter@filter+3,??_CANSetFilter+3
  4431  000550  0E04               	movlw	4
  4432  000552  D006               	goto	u2850
  4433  000554                     u2855:
  4434  000554  0100               	movlb	0	; () banked
  4435  000556  90D8               	bcf	status,0,c
  4436  000558  337B               	rrcf	(??_CANSetFilter+3)& (0+255),f,b
  4437  00055A  337A               	rrcf	(??_CANSetFilter+2)& (0+255),f,b
  4438  00055C  3379               	rrcf	(??_CANSetFilter+1)& (0+255),f,b
  4439  00055E  3378               	rrcf	??_CANSetFilter& (0+255),f,b
  4440  000560                     u2850:
  4441  000560  2EE8               	decfsz	wreg,f,c
  4442  000562  D7F8               	goto	u2855
  4443  000564  C078  F07D         	movff	??_CANSetFilter,CANSetFilter@tamp
  4444  000568  C079  F07E         	movff	??_CANSetFilter+1,CANSetFilter@tamp+1
  4445  00056C  C07A  F07F         	movff	??_CANSetFilter+2,CANSetFilter@tamp+2
  4446  000570  C07B  F080         	movff	??_CANSetFilter+3,CANSetFilter@tamp+3
  4447                           
  4448                           ; BSR set to: 0
  4449                           ;can\CANlib.h: 822: tamp = tamp & 0x000000FF;
  4450  000574  0100               	movlb	0	; () banked
  4451  000576  517D               	movf	CANSetFilter@tamp& (0+255),w,b
  4452  000578  0100               	movlb	0	; () banked
  4453  00057A  6F7D               	movwf	CANSetFilter@tamp& (0+255),b
  4454  00057C  6B7E               	clrf	(CANSetFilter@tamp+1)& (0+255),b
  4455  00057E  6B7F               	clrf	(CANSetFilter@tamp+2)& (0+255),b
  4456  000580  6B80               	clrf	(CANSetFilter@tamp+3)& (0+255),b
  4457                           
  4458                           ; BSR set to: 0
  4459                           ;can\CANlib.h: 823: RXF5SIDH = (unsigned char) tamp;
  4460  000582  C07D  FF14         	movff	CANSetFilter@tamp,3860	;volatile
  4461                           
  4462                           ; BSR set to: 0
  4463                           ;can\CANlib.h: 825: tamp = filter & 0x00000007;
  4464  000586  0E07               	movlw	7
  4465  000588  0100               	movlb	0	; () banked
  4466  00058A  1573               	andwf	CANSetFilter@filter& (0+255),w,b
  4467  00058C  0100               	movlb	0	; () banked
  4468  00058E  6F7D               	movwf	CANSetFilter@tamp& (0+255),b
  4469  000590  0E00               	movlw	0
  4470  000592  0100               	movlb	0	; () banked
  4471  000594  1574               	andwf	(CANSetFilter@filter+1)& (0+255),w,b
  4472  000596  0100               	movlb	0	; () banked
  4473  000598  6F7E               	movwf	(CANSetFilter@tamp+1)& (0+255),b
  4474  00059A  0E00               	movlw	0
  4475  00059C  0100               	movlb	0	; () banked
  4476  00059E  1575               	andwf	(CANSetFilter@filter+2)& (0+255),w,b
  4477  0005A0  0100               	movlb	0	; () banked
  4478  0005A2  6F7F               	movwf	(CANSetFilter@tamp+2)& (0+255),b
  4479  0005A4  0E00               	movlw	0
  4480  0005A6  0100               	movlb	0	; () banked
  4481  0005A8  1576               	andwf	(CANSetFilter@filter+3)& (0+255),w,b
  4482  0005AA  0100               	movlb	0	; () banked
  4483  0005AC  6F80               	movwf	(CANSetFilter@tamp+3)& (0+255),b
  4484                           
  4485                           ; BSR set to: 0
  4486                           ;can\CANlib.h: 826: tamp = tamp << 5;
  4487  0005AE  C07D  F078         	movff	CANSetFilter@tamp,??_CANSetFilter
  4488  0005B2  C07E  F079         	movff	CANSetFilter@tamp+1,??_CANSetFilter+1
  4489  0005B6  C07F  F07A         	movff	CANSetFilter@tamp+2,??_CANSetFilter+2
  4490  0005BA  C080  F07B         	movff	CANSetFilter@tamp+3,??_CANSetFilter+3
  4491  0005BE  0E05               	movlw	5
  4492  0005C0                     u2865:
  4493  0005C0  90D8               	bcf	status,0,c
  4494  0005C2  0100               	movlb	0	; () banked
  4495  0005C4  3778               	rlcf	??_CANSetFilter& (0+255),f,b
  4496  0005C6  3779               	rlcf	(??_CANSetFilter+1)& (0+255),f,b
  4497  0005C8  377A               	rlcf	(??_CANSetFilter+2)& (0+255),f,b
  4498  0005CA  377B               	rlcf	(??_CANSetFilter+3)& (0+255),f,b
  4499  0005CC  2EE8               	decfsz	wreg,f,c
  4500  0005CE  D7F8               	goto	u2865
  4501  0005D0  C078  F07D         	movff	??_CANSetFilter,CANSetFilter@tamp
  4502  0005D4  C079  F07E         	movff	??_CANSetFilter+1,CANSetFilter@tamp+1
  4503  0005D8  C07A  F07F         	movff	??_CANSetFilter+2,CANSetFilter@tamp+2
  4504  0005DC  C07B  F080         	movff	??_CANSetFilter+3,CANSetFilter@tamp+3
  4505                           
  4506                           ; BSR set to: 0
  4507                           ;can\CANlib.h: 827: RXF5SIDL = (unsigned char) tamp;
  4508  0005E0  C07D  FF15         	movff	CANSetFilter@tamp,3861	;volatile
  4509  0005E4                     l2807:
  4510                           
  4511                           ; BSR set to: 0
  4512                           ;can\CANlib.h: 828: }
  4513                           ;can\CANlib.h: 831: if ((numBuffer ==CAN_FILTER_B1_F1) && (type == CAN_CONFIG_XTD_MSG))
  4514  0005E4  0100               	movlb	0	; () banked
  4515  0005E6  517C               	movf	CANSetFilter@numBuffer& (0+255),w,b
  4516  0005E8  0100               	movlb	0	; () banked
  4517  0005EA  A4D8               	btfss	status,2,c
  4518  0005EC  D089               	goto	l2841
  4519                           
  4520                           ; BSR set to: 0
  4521  0005EE  0EF7               	movlw	247
  4522  0005F0  0100               	movlb	0	; () banked
  4523  0005F2  1977               	xorwf	CANSetFilter@type& (0+255),w,b
  4524  0005F4  A4D8               	btfss	status,2,c
  4525  0005F6  D084               	goto	l2841
  4526                           
  4527                           ; BSR set to: 0
  4528                           ;can\CANlib.h: 832: {
  4529                           ;can\CANlib.h: 833: RXF0SIDLbits.EXIDEN = 0x01;
  4530  0005F8  010F               	movlb	15	; () banked
  4531  0005FA  8701               	bsf	1,3,b	;volatile
  4532                           
  4533                           ; BSR set to: 15
  4534                           ;can\CANlib.h: 835: tamp = filter & 0x000000FF;
  4535  0005FC  0100               	movlb	0	; () banked
  4536  0005FE  5173               	movf	CANSetFilter@filter& (0+255),w,b
  4537  000600  0100               	movlb	0	; () banked
  4538  000602  6F7D               	movwf	CANSetFilter@tamp& (0+255),b
  4539  000604  6B7E               	clrf	(CANSetFilter@tamp+1)& (0+255),b
  4540  000606  6B7F               	clrf	(CANSetFilter@tamp+2)& (0+255),b
  4541  000608  6B80               	clrf	(CANSetFilter@tamp+3)& (0+255),b
  4542                           
  4543                           ; BSR set to: 0
  4544                           ;can\CANlib.h: 836: RXF0EIDL = (unsigned char) tamp;
  4545  00060A  C07D  FF03         	movff	CANSetFilter@tamp,3843	;volatile
  4546                           
  4547                           ; BSR set to: 0
  4548                           ;can\CANlib.h: 838: tamp = filter & 0x0000FF00;
  4549  00060E  0E00               	movlw	0
  4550  000610  0100               	movlb	0	; () banked
  4551  000612  1573               	andwf	CANSetFilter@filter& (0+255),w,b
  4552  000614  0100               	movlb	0	; () banked
  4553  000616  6F7D               	movwf	CANSetFilter@tamp& (0+255),b
  4554  000618  0EFF               	movlw	255
  4555  00061A  0100               	movlb	0	; () banked
  4556  00061C  1574               	andwf	(CANSetFilter@filter+1)& (0+255),w,b
  4557  00061E  0100               	movlb	0	; () banked
  4558  000620  6F7E               	movwf	(CANSetFilter@tamp+1)& (0+255),b
  4559  000622  0E00               	movlw	0
  4560  000624  0100               	movlb	0	; () banked
  4561  000626  1575               	andwf	(CANSetFilter@filter+2)& (0+255),w,b
  4562  000628  0100               	movlb	0	; () banked
  4563  00062A  6F7F               	movwf	(CANSetFilter@tamp+2)& (0+255),b
  4564  00062C  0E00               	movlw	0
  4565  00062E  0100               	movlb	0	; () banked
  4566  000630  1576               	andwf	(CANSetFilter@filter+3)& (0+255),w,b
  4567  000632  0100               	movlb	0	; () banked
  4568  000634  6F80               	movwf	(CANSetFilter@tamp+3)& (0+255),b
  4569                           
  4570                           ; BSR set to: 0
  4571                           ;can\CANlib.h: 839: tamp = tamp >> 8;
  4572  000636  C07D  F078         	movff	CANSetFilter@tamp,??_CANSetFilter
  4573  00063A  C07E  F079         	movff	CANSetFilter@tamp+1,??_CANSetFilter+1
  4574  00063E  C07F  F07A         	movff	CANSetFilter@tamp+2,??_CANSetFilter+2
  4575  000642  C080  F07B         	movff	CANSetFilter@tamp+3,??_CANSetFilter+3
  4576  000646  C079  F078         	movff	??_CANSetFilter+1,??_CANSetFilter
  4577  00064A  C07A  F079         	movff	??_CANSetFilter+2,??_CANSetFilter+1
  4578  00064E  C07B  F07A         	movff	??_CANSetFilter+3,??_CANSetFilter+2
  4579  000652  0100               	movlb	0	; () banked
  4580  000654  6B7B               	clrf	(??_CANSetFilter+3)& (0+255),b
  4581  000656  C078  F07D         	movff	??_CANSetFilter,CANSetFilter@tamp
  4582  00065A  C079  F07E         	movff	??_CANSetFilter+1,CANSetFilter@tamp+1
  4583  00065E  C07A  F07F         	movff	??_CANSetFilter+2,CANSetFilter@tamp+2
  4584  000662  C07B  F080         	movff	??_CANSetFilter+3,CANSetFilter@tamp+3
  4585                           
  4586                           ; BSR set to: 0
  4587                           ;can\CANlib.h: 840: RXF0EIDH = (unsigned char) tamp;
  4588  000666  C07D  FF02         	movff	CANSetFilter@tamp,3842	;volatile
  4589                           
  4590                           ; BSR set to: 0
  4591                           ;can\CANlib.h: 842: if (filter & 0x00010000)
  4592  00066A  0100               	movlb	0	; () banked
  4593  00066C  A175               	btfss	(CANSetFilter@filter+2)& (0+255),0,b
  4594  00066E  D003               	goto	l439
  4595                           
  4596                           ; BSR set to: 0
  4597                           ;can\CANlib.h: 843: RXF0SIDLbits.EID16 = 0x01;
  4598  000670  010F               	movlb	15	; () banked
  4599  000672  8101               	bsf	1,0,b	;volatile
  4600  000674  D002               	goto	l440
  4601  000676                     l439:
  4602                           
  4603                           ; BSR set to: 0
  4604                           ;can\CANlib.h: 844: else
  4605                           ;can\CANlib.h: 845: RXF0SIDLbits.EID16 = 0x00;
  4606  000676  010F               	movlb	15	; () banked
  4607  000678  9101               	bcf	1,0,b	;volatile
  4608  00067A                     l440:
  4609                           
  4610                           ; BSR set to: 15
  4611                           ;can\CANlib.h: 847: if (filter & 0x00020000)
  4612  00067A  0100               	movlb	0	; () banked
  4613  00067C  A375               	btfss	(CANSetFilter@filter+2)& (0+255),1,b
  4614  00067E  D003               	goto	l441
  4615                           
  4616                           ; BSR set to: 0
  4617                           ;can\CANlib.h: 848: RXF0SIDLbits.EID17 = 0x01;
  4618  000680  010F               	movlb	15	; () banked
  4619  000682  8301               	bsf	1,1,b	;volatile
  4620  000684  D002               	goto	l442
  4621  000686                     l441:
  4622                           
  4623                           ; BSR set to: 0
  4624                           ;can\CANlib.h: 849: else
  4625                           ;can\CANlib.h: 850: RXF0SIDLbits.EID17 = 0x00;
  4626  000686  010F               	movlb	15	; () banked
  4627  000688  9301               	bcf	1,1,b	;volatile
  4628  00068A                     l442:
  4629                           
  4630                           ; BSR set to: 15
  4631                           ;can\CANlib.h: 852: if (filter & 0x00040000)
  4632  00068A  0100               	movlb	0	; () banked
  4633  00068C  A575               	btfss	(CANSetFilter@filter+2)& (0+255),2,b
  4634  00068E  D003               	goto	l443
  4635                           
  4636                           ; BSR set to: 0
  4637                           ;can\CANlib.h: 853: RXF0SIDLbits.SID0 = 0x01;
  4638  000690  010F               	movlb	15	; () banked
  4639  000692  8B01               	bsf	1,5,b	;volatile
  4640  000694  D002               	goto	l444
  4641  000696                     l443:
  4642                           
  4643                           ; BSR set to: 0
  4644                           ;can\CANlib.h: 854: else
  4645                           ;can\CANlib.h: 855: RXF0SIDLbits.SID0 = 0x00;
  4646  000696  010F               	movlb	15	; () banked
  4647  000698  9B01               	bcf	1,5,b	;volatile
  4648  00069A                     l444:
  4649                           
  4650                           ; BSR set to: 15
  4651                           ;can\CANlib.h: 857: if (filter & 0x00080000)
  4652  00069A  0100               	movlb	0	; () banked
  4653  00069C  A775               	btfss	(CANSetFilter@filter+2)& (0+255),3,b
  4654  00069E  D003               	goto	l445
  4655                           
  4656                           ; BSR set to: 0
  4657                           ;can\CANlib.h: 858: RXF0SIDLbits.SID1 = 0x01;
  4658  0006A0  010F               	movlb	15	; () banked
  4659  0006A2  8D01               	bsf	1,6,b	;volatile
  4660  0006A4  D002               	goto	l446
  4661  0006A6                     l445:
  4662                           
  4663                           ; BSR set to: 0
  4664                           ;can\CANlib.h: 859: else
  4665                           ;can\CANlib.h: 860: RXF0SIDLbits.SID1 = 0x00;
  4666  0006A6  010F               	movlb	15	; () banked
  4667  0006A8  9D01               	bcf	1,6,b	;volatile
  4668  0006AA                     l446:
  4669                           
  4670                           ; BSR set to: 15
  4671                           ;can\CANlib.h: 862: if (filter & 0x00100000)
  4672  0006AA  0100               	movlb	0	; () banked
  4673  0006AC  A975               	btfss	(CANSetFilter@filter+2)& (0+255),4,b
  4674  0006AE  D003               	goto	l447
  4675                           
  4676                           ; BSR set to: 0
  4677                           ;can\CANlib.h: 863: RXF0SIDLbits.SID2 = 0x01 ;
  4678  0006B0  010F               	movlb	15	; () banked
  4679  0006B2  8F01               	bsf	1,7,b	;volatile
  4680  0006B4  D002               	goto	l2835
  4681  0006B6                     l447:
  4682                           
  4683                           ; BSR set to: 0
  4684                           ;can\CANlib.h: 864: else
  4685                           ;can\CANlib.h: 865: RXF0SIDLbits.SID2 = 0x00 ;
  4686  0006B6  010F               	movlb	15	; () banked
  4687  0006B8  9F01               	bcf	1,7,b	;volatile
  4688  0006BA                     l2835:
  4689                           
  4690                           ; BSR set to: 15
  4691                           ;can\CANlib.h: 867: tamp = (filter >> 21);
  4692  0006BA  C073  F078         	movff	CANSetFilter@filter,??_CANSetFilter
  4693  0006BE  C074  F079         	movff	CANSetFilter@filter+1,??_CANSetFilter+1
  4694  0006C2  C075  F07A         	movff	CANSetFilter@filter+2,??_CANSetFilter+2
  4695  0006C6  C076  F07B         	movff	CANSetFilter@filter+3,??_CANSetFilter+3
  4696  0006CA  0E16               	movlw	22
  4697  0006CC  D006               	goto	u2940
  4698  0006CE                     u2945:
  4699  0006CE  0100               	movlb	0	; () banked
  4700  0006D0  90D8               	bcf	status,0,c
  4701  0006D2  337B               	rrcf	(??_CANSetFilter+3)& (0+255),f,b
  4702  0006D4  337A               	rrcf	(??_CANSetFilter+2)& (0+255),f,b
  4703  0006D6  3379               	rrcf	(??_CANSetFilter+1)& (0+255),f,b
  4704  0006D8  3378               	rrcf	??_CANSetFilter& (0+255),f,b
  4705  0006DA                     u2940:
  4706  0006DA  2EE8               	decfsz	wreg,f,c
  4707  0006DC  D7F8               	goto	u2945
  4708  0006DE  C078  F07D         	movff	??_CANSetFilter,CANSetFilter@tamp
  4709  0006E2  C079  F07E         	movff	??_CANSetFilter+1,CANSetFilter@tamp+1
  4710  0006E6  C07A  F07F         	movff	??_CANSetFilter+2,CANSetFilter@tamp+2
  4711  0006EA  C07B  F080         	movff	??_CANSetFilter+3,CANSetFilter@tamp+3
  4712                           
  4713                           ; BSR set to: 0
  4714                           ;can\CANlib.h: 868: tamp = tamp & 0x000000FF;
  4715  0006EE  0100               	movlb	0	; () banked
  4716  0006F0  517D               	movf	CANSetFilter@tamp& (0+255),w,b
  4717  0006F2  0100               	movlb	0	; () banked
  4718  0006F4  6F7D               	movwf	CANSetFilter@tamp& (0+255),b
  4719  0006F6  6B7E               	clrf	(CANSetFilter@tamp+1)& (0+255),b
  4720  0006F8  6B7F               	clrf	(CANSetFilter@tamp+2)& (0+255),b
  4721  0006FA  6B80               	clrf	(CANSetFilter@tamp+3)& (0+255),b
  4722                           
  4723                           ; BSR set to: 0
  4724                           ;can\CANlib.h: 869: RXF0SIDH = (unsigned char) tamp;
  4725  0006FC  C07D  FF00         	movff	CANSetFilter@tamp,3840	;volatile
  4726  000700                     l2841:
  4727                           
  4728                           ; BSR set to: 0
  4729                           ;can\CANlib.h: 870: }
  4730                           ;can\CANlib.h: 872: if ((numBuffer ==CAN_FILTER_B1_F2) && (type == CAN_CONFIG_XTD_MSG))
  4731  000700  0100               	movlb	0	; () banked
  4732  000702  057C               	decf	CANSetFilter@numBuffer& (0+255),w,b
  4733  000704  A4D8               	btfss	status,2,c
  4734  000706  D089               	goto	l2875
  4735                           
  4736                           ; BSR set to: 0
  4737  000708  0EF7               	movlw	247
  4738  00070A  0100               	movlb	0	; () banked
  4739  00070C  1977               	xorwf	CANSetFilter@type& (0+255),w,b
  4740  00070E  A4D8               	btfss	status,2,c
  4741  000710  D084               	goto	l2875
  4742                           
  4743                           ; BSR set to: 0
  4744                           ;can\CANlib.h: 873: {
  4745                           ;can\CANlib.h: 874: RXF1SIDLbits.EXIDEN = 0x01;
  4746  000712  010F               	movlb	15	; () banked
  4747  000714  8705               	bsf	5,3,b	;volatile
  4748                           
  4749                           ; BSR set to: 15
  4750                           ;can\CANlib.h: 876: tamp = filter & 0x000000FF;
  4751  000716  0100               	movlb	0	; () banked
  4752  000718  5173               	movf	CANSetFilter@filter& (0+255),w,b
  4753  00071A  0100               	movlb	0	; () banked
  4754  00071C  6F7D               	movwf	CANSetFilter@tamp& (0+255),b
  4755  00071E  6B7E               	clrf	(CANSetFilter@tamp+1)& (0+255),b
  4756  000720  6B7F               	clrf	(CANSetFilter@tamp+2)& (0+255),b
  4757  000722  6B80               	clrf	(CANSetFilter@tamp+3)& (0+255),b
  4758                           
  4759                           ; BSR set to: 0
  4760                           ;can\CANlib.h: 877: RXF1EIDL = (unsigned char) tamp;
  4761  000724  C07D  FF07         	movff	CANSetFilter@tamp,3847	;volatile
  4762                           
  4763                           ; BSR set to: 0
  4764                           ;can\CANlib.h: 879: tamp = filter & 0x0000FF00;
  4765  000728  0E00               	movlw	0
  4766  00072A  0100               	movlb	0	; () banked
  4767  00072C  1573               	andwf	CANSetFilter@filter& (0+255),w,b
  4768  00072E  0100               	movlb	0	; () banked
  4769  000730  6F7D               	movwf	CANSetFilter@tamp& (0+255),b
  4770  000732  0EFF               	movlw	255
  4771  000734  0100               	movlb	0	; () banked
  4772  000736  1574               	andwf	(CANSetFilter@filter+1)& (0+255),w,b
  4773  000738  0100               	movlb	0	; () banked
  4774  00073A  6F7E               	movwf	(CANSetFilter@tamp+1)& (0+255),b
  4775  00073C  0E00               	movlw	0
  4776  00073E  0100               	movlb	0	; () banked
  4777  000740  1575               	andwf	(CANSetFilter@filter+2)& (0+255),w,b
  4778  000742  0100               	movlb	0	; () banked
  4779  000744  6F7F               	movwf	(CANSetFilter@tamp+2)& (0+255),b
  4780  000746  0E00               	movlw	0
  4781  000748  0100               	movlb	0	; () banked
  4782  00074A  1576               	andwf	(CANSetFilter@filter+3)& (0+255),w,b
  4783  00074C  0100               	movlb	0	; () banked
  4784  00074E  6F80               	movwf	(CANSetFilter@tamp+3)& (0+255),b
  4785                           
  4786                           ; BSR set to: 0
  4787                           ;can\CANlib.h: 880: tamp = tamp >> 8;
  4788  000750  C07D  F078         	movff	CANSetFilter@tamp,??_CANSetFilter
  4789  000754  C07E  F079         	movff	CANSetFilter@tamp+1,??_CANSetFilter+1
  4790  000758  C07F  F07A         	movff	CANSetFilter@tamp+2,??_CANSetFilter+2
  4791  00075C  C080  F07B         	movff	CANSetFilter@tamp+3,??_CANSetFilter+3
  4792  000760  C079  F078         	movff	??_CANSetFilter+1,??_CANSetFilter
  4793  000764  C07A  F079         	movff	??_CANSetFilter+2,??_CANSetFilter+1
  4794  000768  C07B  F07A         	movff	??_CANSetFilter+3,??_CANSetFilter+2
  4795  00076C  0100               	movlb	0	; () banked
  4796  00076E  6B7B               	clrf	(??_CANSetFilter+3)& (0+255),b
  4797  000770  C078  F07D         	movff	??_CANSetFilter,CANSetFilter@tamp
  4798  000774  C079  F07E         	movff	??_CANSetFilter+1,CANSetFilter@tamp+1
  4799  000778  C07A  F07F         	movff	??_CANSetFilter+2,CANSetFilter@tamp+2
  4800  00077C  C07B  F080         	movff	??_CANSetFilter+3,CANSetFilter@tamp+3
  4801                           
  4802                           ; BSR set to: 0
  4803                           ;can\CANlib.h: 881: RXF1EIDH = (unsigned char) tamp;
  4804  000780  C07D  FF06         	movff	CANSetFilter@tamp,3846	;volatile
  4805                           
  4806                           ; BSR set to: 0
  4807                           ;can\CANlib.h: 883: if (filter & 0x00010000)
  4808  000784  0100               	movlb	0	; () banked
  4809  000786  A175               	btfss	(CANSetFilter@filter+2)& (0+255),0,b
  4810  000788  D003               	goto	l450
  4811                           
  4812                           ; BSR set to: 0
  4813                           ;can\CANlib.h: 884: RXF1SIDLbits.EID16 = 0x01;
  4814  00078A  010F               	movlb	15	; () banked
  4815  00078C  8105               	bsf	5,0,b	;volatile
  4816  00078E  D002               	goto	l451
  4817  000790                     l450:
  4818                           
  4819                           ; BSR set to: 0
  4820                           ;can\CANlib.h: 885: else
  4821                           ;can\CANlib.h: 886: RXF1SIDLbits.EID16 = 0x00;
  4822  000790  010F               	movlb	15	; () banked
  4823  000792  9105               	bcf	5,0,b	;volatile
  4824  000794                     l451:
  4825                           
  4826                           ; BSR set to: 15
  4827                           ;can\CANlib.h: 888: if (filter & 0x00020000)
  4828  000794  0100               	movlb	0	; () banked
  4829  000796  A375               	btfss	(CANSetFilter@filter+2)& (0+255),1,b
  4830  000798  D003               	goto	l452
  4831                           
  4832                           ; BSR set to: 0
  4833                           ;can\CANlib.h: 889: RXF1SIDLbits.EID17 = 0x01;
  4834  00079A  010F               	movlb	15	; () banked
  4835  00079C  8305               	bsf	5,1,b	;volatile
  4836  00079E  D002               	goto	l453
  4837  0007A0                     l452:
  4838                           
  4839                           ; BSR set to: 0
  4840                           ;can\CANlib.h: 890: else
  4841                           ;can\CANlib.h: 891: RXF1SIDLbits.EID17 = 0x00;
  4842  0007A0  010F               	movlb	15	; () banked
  4843  0007A2  9305               	bcf	5,1,b	;volatile
  4844  0007A4                     l453:
  4845                           
  4846                           ; BSR set to: 15
  4847                           ;can\CANlib.h: 893: if (filter & 0x00040000)
  4848  0007A4  0100               	movlb	0	; () banked
  4849  0007A6  A575               	btfss	(CANSetFilter@filter+2)& (0+255),2,b
  4850  0007A8  D003               	goto	l454
  4851                           
  4852                           ; BSR set to: 0
  4853                           ;can\CANlib.h: 894: RXF1SIDLbits.SID0 = 0x01;
  4854  0007AA  010F               	movlb	15	; () banked
  4855  0007AC  8B05               	bsf	5,5,b	;volatile
  4856  0007AE  D002               	goto	l455
  4857  0007B0                     l454:
  4858                           
  4859                           ; BSR set to: 0
  4860                           ;can\CANlib.h: 895: else
  4861                           ;can\CANlib.h: 896: RXF1SIDLbits.SID0 = 0x00;
  4862  0007B0  010F               	movlb	15	; () banked
  4863  0007B2  9B05               	bcf	5,5,b	;volatile
  4864  0007B4                     l455:
  4865                           
  4866                           ; BSR set to: 15
  4867                           ;can\CANlib.h: 898: if (filter & 0x00080000)
  4868  0007B4  0100               	movlb	0	; () banked
  4869  0007B6  A775               	btfss	(CANSetFilter@filter+2)& (0+255),3,b
  4870  0007B8  D003               	goto	l456
  4871                           
  4872                           ; BSR set to: 0
  4873                           ;can\CANlib.h: 899: RXF1SIDLbits.SID1 = 0x01;
  4874  0007BA  010F               	movlb	15	; () banked
  4875  0007BC  8D05               	bsf	5,6,b	;volatile
  4876  0007BE  D002               	goto	l457
  4877  0007C0                     l456:
  4878                           
  4879                           ; BSR set to: 0
  4880                           ;can\CANlib.h: 900: else
  4881                           ;can\CANlib.h: 901: RXF1SIDLbits.SID1 = 0x00;
  4882  0007C0  010F               	movlb	15	; () banked
  4883  0007C2  9D05               	bcf	5,6,b	;volatile
  4884  0007C4                     l457:
  4885                           
  4886                           ; BSR set to: 15
  4887                           ;can\CANlib.h: 903: if (filter & 0x00100000)
  4888  0007C4  0100               	movlb	0	; () banked
  4889  0007C6  A975               	btfss	(CANSetFilter@filter+2)& (0+255),4,b
  4890  0007C8  D003               	goto	l458
  4891                           
  4892                           ; BSR set to: 0
  4893                           ;can\CANlib.h: 904: RXF1SIDLbits.SID2 = 0x01 ;
  4894  0007CA  010F               	movlb	15	; () banked
  4895  0007CC  8F05               	bsf	5,7,b	;volatile
  4896  0007CE  D002               	goto	l2869
  4897  0007D0                     l458:
  4898                           
  4899                           ; BSR set to: 0
  4900                           ;can\CANlib.h: 905: else
  4901                           ;can\CANlib.h: 906: RXF1SIDLbits.SID2 = 0x00 ;
  4902  0007D0  010F               	movlb	15	; () banked
  4903  0007D2  9F05               	bcf	5,7,b	;volatile
  4904  0007D4                     l2869:
  4905                           
  4906                           ; BSR set to: 15
  4907                           ;can\CANlib.h: 908: tamp = (filter >> 21);
  4908  0007D4  C073  F078         	movff	CANSetFilter@filter,??_CANSetFilter
  4909  0007D8  C074  F079         	movff	CANSetFilter@filter+1,??_CANSetFilter+1
  4910  0007DC  C075  F07A         	movff	CANSetFilter@filter+2,??_CANSetFilter+2
  4911  0007E0  C076  F07B         	movff	CANSetFilter@filter+3,??_CANSetFilter+3
  4912  0007E4  0E16               	movlw	22
  4913  0007E6  D006               	goto	u3020
  4914  0007E8                     u3025:
  4915  0007E8  0100               	movlb	0	; () banked
  4916  0007EA  90D8               	bcf	status,0,c
  4917  0007EC  337B               	rrcf	(??_CANSetFilter+3)& (0+255),f,b
  4918  0007EE  337A               	rrcf	(??_CANSetFilter+2)& (0+255),f,b
  4919  0007F0  3379               	rrcf	(??_CANSetFilter+1)& (0+255),f,b
  4920  0007F2  3378               	rrcf	??_CANSetFilter& (0+255),f,b
  4921  0007F4                     u3020:
  4922  0007F4  2EE8               	decfsz	wreg,f,c
  4923  0007F6  D7F8               	goto	u3025
  4924  0007F8  C078  F07D         	movff	??_CANSetFilter,CANSetFilter@tamp
  4925  0007FC  C079  F07E         	movff	??_CANSetFilter+1,CANSetFilter@tamp+1
  4926  000800  C07A  F07F         	movff	??_CANSetFilter+2,CANSetFilter@tamp+2
  4927  000804  C07B  F080         	movff	??_CANSetFilter+3,CANSetFilter@tamp+3
  4928                           
  4929                           ; BSR set to: 0
  4930                           ;can\CANlib.h: 909: tamp = tamp & 0x000000FF;
  4931  000808  0100               	movlb	0	; () banked
  4932  00080A  517D               	movf	CANSetFilter@tamp& (0+255),w,b
  4933  00080C  0100               	movlb	0	; () banked
  4934  00080E  6F7D               	movwf	CANSetFilter@tamp& (0+255),b
  4935  000810  6B7E               	clrf	(CANSetFilter@tamp+1)& (0+255),b
  4936  000812  6B7F               	clrf	(CANSetFilter@tamp+2)& (0+255),b
  4937  000814  6B80               	clrf	(CANSetFilter@tamp+3)& (0+255),b
  4938                           
  4939                           ; BSR set to: 0
  4940                           ;can\CANlib.h: 910: RXF1SIDH = (unsigned char) tamp;
  4941  000816  C07D  FF04         	movff	CANSetFilter@tamp,3844	;volatile
  4942  00081A                     l2875:
  4943                           
  4944                           ; BSR set to: 0
  4945                           ;can\CANlib.h: 911: }
  4946                           ;can\CANlib.h: 914: if ((numBuffer ==CAN_FILTER_B2_F1) && (type == CAN_CONFIG_XTD_MSG))
  4947  00081A  0E02               	movlw	2
  4948  00081C  0100               	movlb	0	; () banked
  4949  00081E  197C               	xorwf	CANSetFilter@numBuffer& (0+255),w,b
  4950  000820  A4D8               	btfss	status,2,c
  4951  000822  D089               	goto	l2909
  4952                           
  4953                           ; BSR set to: 0
  4954  000824  0EF7               	movlw	247
  4955  000826  0100               	movlb	0	; () banked
  4956  000828  1977               	xorwf	CANSetFilter@type& (0+255),w,b
  4957  00082A  A4D8               	btfss	status,2,c
  4958  00082C  D084               	goto	l2909
  4959                           
  4960                           ; BSR set to: 0
  4961                           ;can\CANlib.h: 915: {
  4962                           ;can\CANlib.h: 916: RXF2SIDLbits.EXIDEN = 0x01;
  4963  00082E  010F               	movlb	15	; () banked
  4964  000830  8709               	bsf	9,3,b	;volatile
  4965                           
  4966                           ; BSR set to: 15
  4967                           ;can\CANlib.h: 918: tamp = filter & 0x000000FF;
  4968  000832  0100               	movlb	0	; () banked
  4969  000834  5173               	movf	CANSetFilter@filter& (0+255),w,b
  4970  000836  0100               	movlb	0	; () banked
  4971  000838  6F7D               	movwf	CANSetFilter@tamp& (0+255),b
  4972  00083A  6B7E               	clrf	(CANSetFilter@tamp+1)& (0+255),b
  4973  00083C  6B7F               	clrf	(CANSetFilter@tamp+2)& (0+255),b
  4974  00083E  6B80               	clrf	(CANSetFilter@tamp+3)& (0+255),b
  4975                           
  4976                           ; BSR set to: 0
  4977                           ;can\CANlib.h: 919: RXF2EIDL = (unsigned char) tamp;
  4978  000840  C07D  FF0B         	movff	CANSetFilter@tamp,3851	;volatile
  4979                           
  4980                           ; BSR set to: 0
  4981                           ;can\CANlib.h: 921: tamp = filter & 0x0000FF00;
  4982  000844  0E00               	movlw	0
  4983  000846  0100               	movlb	0	; () banked
  4984  000848  1573               	andwf	CANSetFilter@filter& (0+255),w,b
  4985  00084A  0100               	movlb	0	; () banked
  4986  00084C  6F7D               	movwf	CANSetFilter@tamp& (0+255),b
  4987  00084E  0EFF               	movlw	255
  4988  000850  0100               	movlb	0	; () banked
  4989  000852  1574               	andwf	(CANSetFilter@filter+1)& (0+255),w,b
  4990  000854  0100               	movlb	0	; () banked
  4991  000856  6F7E               	movwf	(CANSetFilter@tamp+1)& (0+255),b
  4992  000858  0E00               	movlw	0
  4993  00085A  0100               	movlb	0	; () banked
  4994  00085C  1575               	andwf	(CANSetFilter@filter+2)& (0+255),w,b
  4995  00085E  0100               	movlb	0	; () banked
  4996  000860  6F7F               	movwf	(CANSetFilter@tamp+2)& (0+255),b
  4997  000862  0E00               	movlw	0
  4998  000864  0100               	movlb	0	; () banked
  4999  000866  1576               	andwf	(CANSetFilter@filter+3)& (0+255),w,b
  5000  000868  0100               	movlb	0	; () banked
  5001  00086A  6F80               	movwf	(CANSetFilter@tamp+3)& (0+255),b
  5002                           
  5003                           ; BSR set to: 0
  5004                           ;can\CANlib.h: 922: tamp = tamp >> 8;
  5005  00086C  C07D  F078         	movff	CANSetFilter@tamp,??_CANSetFilter
  5006  000870  C07E  F079         	movff	CANSetFilter@tamp+1,??_CANSetFilter+1
  5007  000874  C07F  F07A         	movff	CANSetFilter@tamp+2,??_CANSetFilter+2
  5008  000878  C080  F07B         	movff	CANSetFilter@tamp+3,??_CANSetFilter+3
  5009  00087C  C079  F078         	movff	??_CANSetFilter+1,??_CANSetFilter
  5010  000880  C07A  F079         	movff	??_CANSetFilter+2,??_CANSetFilter+1
  5011  000884  C07B  F07A         	movff	??_CANSetFilter+3,??_CANSetFilter+2
  5012  000888  0100               	movlb	0	; () banked
  5013  00088A  6B7B               	clrf	(??_CANSetFilter+3)& (0+255),b
  5014  00088C  C078  F07D         	movff	??_CANSetFilter,CANSetFilter@tamp
  5015  000890  C079  F07E         	movff	??_CANSetFilter+1,CANSetFilter@tamp+1
  5016  000894  C07A  F07F         	movff	??_CANSetFilter+2,CANSetFilter@tamp+2
  5017  000898  C07B  F080         	movff	??_CANSetFilter+3,CANSetFilter@tamp+3
  5018                           
  5019                           ; BSR set to: 0
  5020                           ;can\CANlib.h: 923: RXF2EIDH = (unsigned char) tamp;
  5021  00089C  C07D  FF0A         	movff	CANSetFilter@tamp,3850	;volatile
  5022                           
  5023                           ; BSR set to: 0
  5024                           ;can\CANlib.h: 925: if (filter & 0x00010000)
  5025  0008A0  0100               	movlb	0	; () banked
  5026  0008A2  A175               	btfss	(CANSetFilter@filter+2)& (0+255),0,b
  5027  0008A4  D003               	goto	l461
  5028                           
  5029                           ; BSR set to: 0
  5030                           ;can\CANlib.h: 926: RXF2SIDLbits.EID16 = 0x01;
  5031  0008A6  010F               	movlb	15	; () banked
  5032  0008A8  8109               	bsf	9,0,b	;volatile
  5033  0008AA  D002               	goto	l462
  5034  0008AC                     l461:
  5035                           
  5036                           ; BSR set to: 0
  5037                           ;can\CANlib.h: 927: else
  5038                           ;can\CANlib.h: 928: RXF2SIDLbits.EID16 = 0x00;
  5039  0008AC  010F               	movlb	15	; () banked
  5040  0008AE  9109               	bcf	9,0,b	;volatile
  5041  0008B0                     l462:
  5042                           
  5043                           ; BSR set to: 15
  5044                           ;can\CANlib.h: 930: if (filter & 0x00020000)
  5045  0008B0  0100               	movlb	0	; () banked
  5046  0008B2  A375               	btfss	(CANSetFilter@filter+2)& (0+255),1,b
  5047  0008B4  D003               	goto	l463
  5048                           
  5049                           ; BSR set to: 0
  5050                           ;can\CANlib.h: 931: RXF2SIDLbits.EID17 = 0x01;
  5051  0008B6  010F               	movlb	15	; () banked
  5052  0008B8  8309               	bsf	9,1,b	;volatile
  5053  0008BA  D002               	goto	l464
  5054  0008BC                     l463:
  5055                           
  5056                           ; BSR set to: 0
  5057                           ;can\CANlib.h: 932: else
  5058                           ;can\CANlib.h: 933: RXF2SIDLbits.EID17 = 0x00;
  5059  0008BC  010F               	movlb	15	; () banked
  5060  0008BE  9309               	bcf	9,1,b	;volatile
  5061  0008C0                     l464:
  5062                           
  5063                           ; BSR set to: 15
  5064                           ;can\CANlib.h: 935: if (filter & 0x00040000)
  5065  0008C0  0100               	movlb	0	; () banked
  5066  0008C2  A575               	btfss	(CANSetFilter@filter+2)& (0+255),2,b
  5067  0008C4  D003               	goto	l465
  5068                           
  5069                           ; BSR set to: 0
  5070                           ;can\CANlib.h: 936: RXF2SIDLbits.SID0 = 0x01;
  5071  0008C6  010F               	movlb	15	; () banked
  5072  0008C8  8B09               	bsf	9,5,b	;volatile
  5073  0008CA  D002               	goto	l466
  5074  0008CC                     l465:
  5075                           
  5076                           ; BSR set to: 0
  5077                           ;can\CANlib.h: 937: else
  5078                           ;can\CANlib.h: 938: RXF2SIDLbits.SID0 = 0x00;
  5079  0008CC  010F               	movlb	15	; () banked
  5080  0008CE  9B09               	bcf	9,5,b	;volatile
  5081  0008D0                     l466:
  5082                           
  5083                           ; BSR set to: 15
  5084                           ;can\CANlib.h: 940: if (filter & 0x00080000)
  5085  0008D0  0100               	movlb	0	; () banked
  5086  0008D2  A775               	btfss	(CANSetFilter@filter+2)& (0+255),3,b
  5087  0008D4  D003               	goto	l467
  5088                           
  5089                           ; BSR set to: 0
  5090                           ;can\CANlib.h: 941: RXF2SIDLbits.SID1 = 0x01;
  5091  0008D6  010F               	movlb	15	; () banked
  5092  0008D8  8D09               	bsf	9,6,b	;volatile
  5093  0008DA  D002               	goto	l468
  5094  0008DC                     l467:
  5095                           
  5096                           ; BSR set to: 0
  5097                           ;can\CANlib.h: 942: else
  5098                           ;can\CANlib.h: 943: RXF2SIDLbits.SID1 = 0x00;
  5099  0008DC  010F               	movlb	15	; () banked
  5100  0008DE  9D09               	bcf	9,6,b	;volatile
  5101  0008E0                     l468:
  5102                           
  5103                           ; BSR set to: 15
  5104                           ;can\CANlib.h: 945: if (filter & 0x00100000)
  5105  0008E0  0100               	movlb	0	; () banked
  5106  0008E2  A975               	btfss	(CANSetFilter@filter+2)& (0+255),4,b
  5107  0008E4  D003               	goto	l469
  5108                           
  5109                           ; BSR set to: 0
  5110                           ;can\CANlib.h: 946: RXF2SIDLbits.SID2 = 0x01 ;
  5111  0008E6  010F               	movlb	15	; () banked
  5112  0008E8  8F09               	bsf	9,7,b	;volatile
  5113  0008EA  D002               	goto	l2903
  5114  0008EC                     l469:
  5115                           
  5116                           ; BSR set to: 0
  5117                           ;can\CANlib.h: 947: else
  5118                           ;can\CANlib.h: 948: RXF2SIDLbits.SID2 = 0x00 ;
  5119  0008EC  010F               	movlb	15	; () banked
  5120  0008EE  9F09               	bcf	9,7,b	;volatile
  5121  0008F0                     l2903:
  5122                           
  5123                           ; BSR set to: 15
  5124                           ;can\CANlib.h: 950: tamp = (filter >> 21);
  5125  0008F0  C073  F078         	movff	CANSetFilter@filter,??_CANSetFilter
  5126  0008F4  C074  F079         	movff	CANSetFilter@filter+1,??_CANSetFilter+1
  5127  0008F8  C075  F07A         	movff	CANSetFilter@filter+2,??_CANSetFilter+2
  5128  0008FC  C076  F07B         	movff	CANSetFilter@filter+3,??_CANSetFilter+3
  5129  000900  0E16               	movlw	22
  5130  000902  D006               	goto	u3100
  5131  000904                     u3105:
  5132  000904  0100               	movlb	0	; () banked
  5133  000906  90D8               	bcf	status,0,c
  5134  000908  337B               	rrcf	(??_CANSetFilter+3)& (0+255),f,b
  5135  00090A  337A               	rrcf	(??_CANSetFilter+2)& (0+255),f,b
  5136  00090C  3379               	rrcf	(??_CANSetFilter+1)& (0+255),f,b
  5137  00090E  3378               	rrcf	??_CANSetFilter& (0+255),f,b
  5138  000910                     u3100:
  5139  000910  2EE8               	decfsz	wreg,f,c
  5140  000912  D7F8               	goto	u3105
  5141  000914  C078  F07D         	movff	??_CANSetFilter,CANSetFilter@tamp
  5142  000918  C079  F07E         	movff	??_CANSetFilter+1,CANSetFilter@tamp+1
  5143  00091C  C07A  F07F         	movff	??_CANSetFilter+2,CANSetFilter@tamp+2
  5144  000920  C07B  F080         	movff	??_CANSetFilter+3,CANSetFilter@tamp+3
  5145                           
  5146                           ; BSR set to: 0
  5147                           ;can\CANlib.h: 951: tamp = tamp & 0x000000FF;
  5148  000924  0100               	movlb	0	; () banked
  5149  000926  517D               	movf	CANSetFilter@tamp& (0+255),w,b
  5150  000928  0100               	movlb	0	; () banked
  5151  00092A  6F7D               	movwf	CANSetFilter@tamp& (0+255),b
  5152  00092C  6B7E               	clrf	(CANSetFilter@tamp+1)& (0+255),b
  5153  00092E  6B7F               	clrf	(CANSetFilter@tamp+2)& (0+255),b
  5154  000930  6B80               	clrf	(CANSetFilter@tamp+3)& (0+255),b
  5155                           
  5156                           ; BSR set to: 0
  5157                           ;can\CANlib.h: 952: RXF2SIDH = (unsigned char) tamp;
  5158  000932  C07D  FF08         	movff	CANSetFilter@tamp,3848	;volatile
  5159  000936                     l2909:
  5160                           
  5161                           ; BSR set to: 0
  5162                           ;can\CANlib.h: 953: }
  5163                           ;can\CANlib.h: 955: if ((numBuffer ==CAN_FILTER_B2_F2) && (type == CAN_CONFIG_XTD_MSG))
  5164  000936  0E03               	movlw	3
  5165  000938  0100               	movlb	0	; () banked
  5166  00093A  197C               	xorwf	CANSetFilter@numBuffer& (0+255),w,b
  5167  00093C  A4D8               	btfss	status,2,c
  5168  00093E  D089               	goto	l2943
  5169                           
  5170                           ; BSR set to: 0
  5171  000940  0EF7               	movlw	247
  5172  000942  0100               	movlb	0	; () banked
  5173  000944  1977               	xorwf	CANSetFilter@type& (0+255),w,b
  5174  000946  A4D8               	btfss	status,2,c
  5175  000948  D084               	goto	l2943
  5176                           
  5177                           ; BSR set to: 0
  5178                           ;can\CANlib.h: 956: {
  5179                           ;can\CANlib.h: 957: RXF3SIDLbits.EXIDEN = 0x01;
  5180  00094A  010F               	movlb	15	; () banked
  5181  00094C  870D               	bsf	13,3,b	;volatile
  5182                           
  5183                           ; BSR set to: 15
  5184                           ;can\CANlib.h: 959: tamp = filter & 0x000000FF;
  5185  00094E  0100               	movlb	0	; () banked
  5186  000950  5173               	movf	CANSetFilter@filter& (0+255),w,b
  5187  000952  0100               	movlb	0	; () banked
  5188  000954  6F7D               	movwf	CANSetFilter@tamp& (0+255),b
  5189  000956  6B7E               	clrf	(CANSetFilter@tamp+1)& (0+255),b
  5190  000958  6B7F               	clrf	(CANSetFilter@tamp+2)& (0+255),b
  5191  00095A  6B80               	clrf	(CANSetFilter@tamp+3)& (0+255),b
  5192                           
  5193                           ; BSR set to: 0
  5194                           ;can\CANlib.h: 960: RXF3EIDL = (unsigned char) tamp;
  5195  00095C  C07D  FF0F         	movff	CANSetFilter@tamp,3855	;volatile
  5196                           
  5197                           ; BSR set to: 0
  5198                           ;can\CANlib.h: 962: tamp = filter & 0x0000FF00;
  5199  000960  0E00               	movlw	0
  5200  000962  0100               	movlb	0	; () banked
  5201  000964  1573               	andwf	CANSetFilter@filter& (0+255),w,b
  5202  000966  0100               	movlb	0	; () banked
  5203  000968  6F7D               	movwf	CANSetFilter@tamp& (0+255),b
  5204  00096A  0EFF               	movlw	255
  5205  00096C  0100               	movlb	0	; () banked
  5206  00096E  1574               	andwf	(CANSetFilter@filter+1)& (0+255),w,b
  5207  000970  0100               	movlb	0	; () banked
  5208  000972  6F7E               	movwf	(CANSetFilter@tamp+1)& (0+255),b
  5209  000974  0E00               	movlw	0
  5210  000976  0100               	movlb	0	; () banked
  5211  000978  1575               	andwf	(CANSetFilter@filter+2)& (0+255),w,b
  5212  00097A  0100               	movlb	0	; () banked
  5213  00097C  6F7F               	movwf	(CANSetFilter@tamp+2)& (0+255),b
  5214  00097E  0E00               	movlw	0
  5215  000980  0100               	movlb	0	; () banked
  5216  000982  1576               	andwf	(CANSetFilter@filter+3)& (0+255),w,b
  5217  000984  0100               	movlb	0	; () banked
  5218  000986  6F80               	movwf	(CANSetFilter@tamp+3)& (0+255),b
  5219                           
  5220                           ; BSR set to: 0
  5221                           ;can\CANlib.h: 963: tamp = tamp >> 8;
  5222  000988  C07D  F078         	movff	CANSetFilter@tamp,??_CANSetFilter
  5223  00098C  C07E  F079         	movff	CANSetFilter@tamp+1,??_CANSetFilter+1
  5224  000990  C07F  F07A         	movff	CANSetFilter@tamp+2,??_CANSetFilter+2
  5225  000994  C080  F07B         	movff	CANSetFilter@tamp+3,??_CANSetFilter+3
  5226  000998  C079  F078         	movff	??_CANSetFilter+1,??_CANSetFilter
  5227  00099C  C07A  F079         	movff	??_CANSetFilter+2,??_CANSetFilter+1
  5228  0009A0  C07B  F07A         	movff	??_CANSetFilter+3,??_CANSetFilter+2
  5229  0009A4  0100               	movlb	0	; () banked
  5230  0009A6  6B7B               	clrf	(??_CANSetFilter+3)& (0+255),b
  5231  0009A8  C078  F07D         	movff	??_CANSetFilter,CANSetFilter@tamp
  5232  0009AC  C079  F07E         	movff	??_CANSetFilter+1,CANSetFilter@tamp+1
  5233  0009B0  C07A  F07F         	movff	??_CANSetFilter+2,CANSetFilter@tamp+2
  5234  0009B4  C07B  F080         	movff	??_CANSetFilter+3,CANSetFilter@tamp+3
  5235                           
  5236                           ; BSR set to: 0
  5237                           ;can\CANlib.h: 964: RXF3EIDH = (unsigned char) tamp;
  5238  0009B8  C07D  FF0E         	movff	CANSetFilter@tamp,3854	;volatile
  5239                           
  5240                           ; BSR set to: 0
  5241                           ;can\CANlib.h: 966: if (filter & 0x00010000)
  5242  0009BC  0100               	movlb	0	; () banked
  5243  0009BE  A175               	btfss	(CANSetFilter@filter+2)& (0+255),0,b
  5244  0009C0  D003               	goto	l472
  5245                           
  5246                           ; BSR set to: 0
  5247                           ;can\CANlib.h: 967: RXF3SIDLbits.EID16 = 0x01;
  5248  0009C2  010F               	movlb	15	; () banked
  5249  0009C4  810D               	bsf	13,0,b	;volatile
  5250  0009C6  D002               	goto	l473
  5251  0009C8                     l472:
  5252                           
  5253                           ; BSR set to: 0
  5254                           ;can\CANlib.h: 968: else
  5255                           ;can\CANlib.h: 969: RXF3SIDLbits.EID16 = 0x00;
  5256  0009C8  010F               	movlb	15	; () banked
  5257  0009CA  910D               	bcf	13,0,b	;volatile
  5258  0009CC                     l473:
  5259                           
  5260                           ; BSR set to: 15
  5261                           ;can\CANlib.h: 971: if (filter & 0x00020000)
  5262  0009CC  0100               	movlb	0	; () banked
  5263  0009CE  A375               	btfss	(CANSetFilter@filter+2)& (0+255),1,b
  5264  0009D0  D003               	goto	l474
  5265                           
  5266                           ; BSR set to: 0
  5267                           ;can\CANlib.h: 972: RXF3SIDLbits.EID17 = 0x01;
  5268  0009D2  010F               	movlb	15	; () banked
  5269  0009D4  830D               	bsf	13,1,b	;volatile
  5270  0009D6  D002               	goto	l475
  5271  0009D8                     l474:
  5272                           
  5273                           ; BSR set to: 0
  5274                           ;can\CANlib.h: 973: else
  5275                           ;can\CANlib.h: 974: RXF3SIDLbits.EID17 = 0x00;
  5276  0009D8  010F               	movlb	15	; () banked
  5277  0009DA  930D               	bcf	13,1,b	;volatile
  5278  0009DC                     l475:
  5279                           
  5280                           ; BSR set to: 15
  5281                           ;can\CANlib.h: 976: if (filter & 0x00040000)
  5282  0009DC  0100               	movlb	0	; () banked
  5283  0009DE  A575               	btfss	(CANSetFilter@filter+2)& (0+255),2,b
  5284  0009E0  D003               	goto	l476
  5285                           
  5286                           ; BSR set to: 0
  5287                           ;can\CANlib.h: 977: RXF3SIDLbits.SID0 = 0x01;
  5288  0009E2  010F               	movlb	15	; () banked
  5289  0009E4  8B0D               	bsf	13,5,b	;volatile
  5290  0009E6  D002               	goto	l477
  5291  0009E8                     l476:
  5292                           
  5293                           ; BSR set to: 0
  5294                           ;can\CANlib.h: 978: else
  5295                           ;can\CANlib.h: 979: RXF3SIDLbits.SID0 = 0x00;
  5296  0009E8  010F               	movlb	15	; () banked
  5297  0009EA  9B0D               	bcf	13,5,b	;volatile
  5298  0009EC                     l477:
  5299                           
  5300                           ; BSR set to: 15
  5301                           ;can\CANlib.h: 981: if (filter & 0x00080000)
  5302  0009EC  0100               	movlb	0	; () banked
  5303  0009EE  A775               	btfss	(CANSetFilter@filter+2)& (0+255),3,b
  5304  0009F0  D003               	goto	l478
  5305                           
  5306                           ; BSR set to: 0
  5307                           ;can\CANlib.h: 982: RXF3SIDLbits.SID1 = 0x01;
  5308  0009F2  010F               	movlb	15	; () banked
  5309  0009F4  8D0D               	bsf	13,6,b	;volatile
  5310  0009F6  D002               	goto	l479
  5311  0009F8                     l478:
  5312                           
  5313                           ; BSR set to: 0
  5314                           ;can\CANlib.h: 983: else
  5315                           ;can\CANlib.h: 984: RXF3SIDLbits.SID1 = 0x00;
  5316  0009F8  010F               	movlb	15	; () banked
  5317  0009FA  9D0D               	bcf	13,6,b	;volatile
  5318  0009FC                     l479:
  5319                           
  5320                           ; BSR set to: 15
  5321                           ;can\CANlib.h: 986: if (filter & 0x00100000)
  5322  0009FC  0100               	movlb	0	; () banked
  5323  0009FE  A975               	btfss	(CANSetFilter@filter+2)& (0+255),4,b
  5324  000A00  D003               	goto	l480
  5325                           
  5326                           ; BSR set to: 0
  5327                           ;can\CANlib.h: 987: RXF3SIDLbits.SID2 = 0x01 ;
  5328  000A02  010F               	movlb	15	; () banked
  5329  000A04  8F0D               	bsf	13,7,b	;volatile
  5330  000A06  D002               	goto	l2937
  5331  000A08                     l480:
  5332                           
  5333                           ; BSR set to: 0
  5334                           ;can\CANlib.h: 988: else
  5335                           ;can\CANlib.h: 989: RXF3SIDLbits.SID2 = 0x00 ;
  5336  000A08  010F               	movlb	15	; () banked
  5337  000A0A  9F0D               	bcf	13,7,b	;volatile
  5338  000A0C                     l2937:
  5339                           
  5340                           ; BSR set to: 15
  5341                           ;can\CANlib.h: 991: tamp = (filter >> 21);
  5342  000A0C  C073  F078         	movff	CANSetFilter@filter,??_CANSetFilter
  5343  000A10  C074  F079         	movff	CANSetFilter@filter+1,??_CANSetFilter+1
  5344  000A14  C075  F07A         	movff	CANSetFilter@filter+2,??_CANSetFilter+2
  5345  000A18  C076  F07B         	movff	CANSetFilter@filter+3,??_CANSetFilter+3
  5346  000A1C  0E16               	movlw	22
  5347  000A1E  D006               	goto	u3180
  5348  000A20                     u3185:
  5349  000A20  0100               	movlb	0	; () banked
  5350  000A22  90D8               	bcf	status,0,c
  5351  000A24  337B               	rrcf	(??_CANSetFilter+3)& (0+255),f,b
  5352  000A26  337A               	rrcf	(??_CANSetFilter+2)& (0+255),f,b
  5353  000A28  3379               	rrcf	(??_CANSetFilter+1)& (0+255),f,b
  5354  000A2A  3378               	rrcf	??_CANSetFilter& (0+255),f,b
  5355  000A2C                     u3180:
  5356  000A2C  2EE8               	decfsz	wreg,f,c
  5357  000A2E  D7F8               	goto	u3185
  5358  000A30  C078  F07D         	movff	??_CANSetFilter,CANSetFilter@tamp
  5359  000A34  C079  F07E         	movff	??_CANSetFilter+1,CANSetFilter@tamp+1
  5360  000A38  C07A  F07F         	movff	??_CANSetFilter+2,CANSetFilter@tamp+2
  5361  000A3C  C07B  F080         	movff	??_CANSetFilter+3,CANSetFilter@tamp+3
  5362                           
  5363                           ; BSR set to: 0
  5364                           ;can\CANlib.h: 992: tamp = tamp & 0x000000FF;
  5365  000A40  0100               	movlb	0	; () banked
  5366  000A42  517D               	movf	CANSetFilter@tamp& (0+255),w,b
  5367  000A44  0100               	movlb	0	; () banked
  5368  000A46  6F7D               	movwf	CANSetFilter@tamp& (0+255),b
  5369  000A48  6B7E               	clrf	(CANSetFilter@tamp+1)& (0+255),b
  5370  000A4A  6B7F               	clrf	(CANSetFilter@tamp+2)& (0+255),b
  5371  000A4C  6B80               	clrf	(CANSetFilter@tamp+3)& (0+255),b
  5372                           
  5373                           ; BSR set to: 0
  5374                           ;can\CANlib.h: 993: RXF3SIDH = (unsigned char) tamp;
  5375  000A4E  C07D  FF0C         	movff	CANSetFilter@tamp,3852	;volatile
  5376  000A52                     l2943:
  5377                           
  5378                           ; BSR set to: 0
  5379                           ;can\CANlib.h: 994: }
  5380                           ;can\CANlib.h: 996: if ((numBuffer ==CAN_FILTER_B2_F3) && (type == CAN_CONFIG_XTD_MSG))
  5381  000A52  0E04               	movlw	4
  5382  000A54  0100               	movlb	0	; () banked
  5383  000A56  197C               	xorwf	CANSetFilter@numBuffer& (0+255),w,b
  5384  000A58  A4D8               	btfss	status,2,c
  5385  000A5A  D089               	goto	l2977
  5386                           
  5387                           ; BSR set to: 0
  5388  000A5C  0EF7               	movlw	247
  5389  000A5E  0100               	movlb	0	; () banked
  5390  000A60  1977               	xorwf	CANSetFilter@type& (0+255),w,b
  5391  000A62  A4D8               	btfss	status,2,c
  5392  000A64  D084               	goto	l2977
  5393                           
  5394                           ; BSR set to: 0
  5395                           ;can\CANlib.h: 997: {
  5396                           ;can\CANlib.h: 998: RXF4SIDLbits.EXIDEN = 0x01;
  5397  000A66  010F               	movlb	15	; () banked
  5398  000A68  8711               	bsf	17,3,b	;volatile
  5399                           
  5400                           ; BSR set to: 15
  5401                           ;can\CANlib.h: 1000: tamp = filter & 0x000000FF;
  5402  000A6A  0100               	movlb	0	; () banked
  5403  000A6C  5173               	movf	CANSetFilter@filter& (0+255),w,b
  5404  000A6E  0100               	movlb	0	; () banked
  5405  000A70  6F7D               	movwf	CANSetFilter@tamp& (0+255),b
  5406  000A72  6B7E               	clrf	(CANSetFilter@tamp+1)& (0+255),b
  5407  000A74  6B7F               	clrf	(CANSetFilter@tamp+2)& (0+255),b
  5408  000A76  6B80               	clrf	(CANSetFilter@tamp+3)& (0+255),b
  5409                           
  5410                           ; BSR set to: 0
  5411                           ;can\CANlib.h: 1001: RXF4EIDL = (unsigned char) tamp;
  5412  000A78  C07D  FF13         	movff	CANSetFilter@tamp,3859	;volatile
  5413                           
  5414                           ; BSR set to: 0
  5415                           ;can\CANlib.h: 1003: tamp = filter & 0x0000FF00;
  5416  000A7C  0E00               	movlw	0
  5417  000A7E  0100               	movlb	0	; () banked
  5418  000A80  1573               	andwf	CANSetFilter@filter& (0+255),w,b
  5419  000A82  0100               	movlb	0	; () banked
  5420  000A84  6F7D               	movwf	CANSetFilter@tamp& (0+255),b
  5421  000A86  0EFF               	movlw	255
  5422  000A88  0100               	movlb	0	; () banked
  5423  000A8A  1574               	andwf	(CANSetFilter@filter+1)& (0+255),w,b
  5424  000A8C  0100               	movlb	0	; () banked
  5425  000A8E  6F7E               	movwf	(CANSetFilter@tamp+1)& (0+255),b
  5426  000A90  0E00               	movlw	0
  5427  000A92  0100               	movlb	0	; () banked
  5428  000A94  1575               	andwf	(CANSetFilter@filter+2)& (0+255),w,b
  5429  000A96  0100               	movlb	0	; () banked
  5430  000A98  6F7F               	movwf	(CANSetFilter@tamp+2)& (0+255),b
  5431  000A9A  0E00               	movlw	0
  5432  000A9C  0100               	movlb	0	; () banked
  5433  000A9E  1576               	andwf	(CANSetFilter@filter+3)& (0+255),w,b
  5434  000AA0  0100               	movlb	0	; () banked
  5435  000AA2  6F80               	movwf	(CANSetFilter@tamp+3)& (0+255),b
  5436                           
  5437                           ; BSR set to: 0
  5438                           ;can\CANlib.h: 1004: tamp = tamp >> 8;
  5439  000AA4  C07D  F078         	movff	CANSetFilter@tamp,??_CANSetFilter
  5440  000AA8  C07E  F079         	movff	CANSetFilter@tamp+1,??_CANSetFilter+1
  5441  000AAC  C07F  F07A         	movff	CANSetFilter@tamp+2,??_CANSetFilter+2
  5442  000AB0  C080  F07B         	movff	CANSetFilter@tamp+3,??_CANSetFilter+3
  5443  000AB4  C079  F078         	movff	??_CANSetFilter+1,??_CANSetFilter
  5444  000AB8  C07A  F079         	movff	??_CANSetFilter+2,??_CANSetFilter+1
  5445  000ABC  C07B  F07A         	movff	??_CANSetFilter+3,??_CANSetFilter+2
  5446  000AC0  0100               	movlb	0	; () banked
  5447  000AC2  6B7B               	clrf	(??_CANSetFilter+3)& (0+255),b
  5448  000AC4  C078  F07D         	movff	??_CANSetFilter,CANSetFilter@tamp
  5449  000AC8  C079  F07E         	movff	??_CANSetFilter+1,CANSetFilter@tamp+1
  5450  000ACC  C07A  F07F         	movff	??_CANSetFilter+2,CANSetFilter@tamp+2
  5451  000AD0  C07B  F080         	movff	??_CANSetFilter+3,CANSetFilter@tamp+3
  5452                           
  5453                           ; BSR set to: 0
  5454                           ;can\CANlib.h: 1005: RXF4EIDH = (unsigned char) tamp;
  5455  000AD4  C07D  FF12         	movff	CANSetFilter@tamp,3858	;volatile
  5456                           
  5457                           ; BSR set to: 0
  5458                           ;can\CANlib.h: 1007: if (filter & 0x00010000)
  5459  000AD8  0100               	movlb	0	; () banked
  5460  000ADA  A175               	btfss	(CANSetFilter@filter+2)& (0+255),0,b
  5461  000ADC  D003               	goto	l483
  5462                           
  5463                           ; BSR set to: 0
  5464                           ;can\CANlib.h: 1008: RXF4SIDLbits.EID16 = 0x01;
  5465  000ADE  010F               	movlb	15	; () banked
  5466  000AE0  8111               	bsf	17,0,b	;volatile
  5467  000AE2  D002               	goto	l484
  5468  000AE4                     l483:
  5469                           
  5470                           ; BSR set to: 0
  5471                           ;can\CANlib.h: 1009: else
  5472                           ;can\CANlib.h: 1010: RXF4SIDLbits.EID16 = 0x00;
  5473  000AE4  010F               	movlb	15	; () banked
  5474  000AE6  9111               	bcf	17,0,b	;volatile
  5475  000AE8                     l484:
  5476                           
  5477                           ; BSR set to: 15
  5478                           ;can\CANlib.h: 1012: if (filter & 0x00020000)
  5479  000AE8  0100               	movlb	0	; () banked
  5480  000AEA  A375               	btfss	(CANSetFilter@filter+2)& (0+255),1,b
  5481  000AEC  D003               	goto	l485
  5482                           
  5483                           ; BSR set to: 0
  5484                           ;can\CANlib.h: 1013: RXF4SIDLbits.EID17 = 0x01;
  5485  000AEE  010F               	movlb	15	; () banked
  5486  000AF0  8311               	bsf	17,1,b	;volatile
  5487  000AF2  D002               	goto	l486
  5488  000AF4                     l485:
  5489                           
  5490                           ; BSR set to: 0
  5491                           ;can\CANlib.h: 1014: else
  5492                           ;can\CANlib.h: 1015: RXF4SIDLbits.EID17 = 0x00;
  5493  000AF4  010F               	movlb	15	; () banked
  5494  000AF6  9311               	bcf	17,1,b	;volatile
  5495  000AF8                     l486:
  5496                           
  5497                           ; BSR set to: 15
  5498                           ;can\CANlib.h: 1017: if (filter & 0x00040000)
  5499  000AF8  0100               	movlb	0	; () banked
  5500  000AFA  A575               	btfss	(CANSetFilter@filter+2)& (0+255),2,b
  5501  000AFC  D003               	goto	l487
  5502                           
  5503                           ; BSR set to: 0
  5504                           ;can\CANlib.h: 1018: RXF4SIDLbits.SID0 = 0x01;
  5505  000AFE  010F               	movlb	15	; () banked
  5506  000B00  8B11               	bsf	17,5,b	;volatile
  5507  000B02  D002               	goto	l488
  5508  000B04                     l487:
  5509                           
  5510                           ; BSR set to: 0
  5511                           ;can\CANlib.h: 1019: else
  5512                           ;can\CANlib.h: 1020: RXF4SIDLbits.SID0 = 0x00;
  5513  000B04  010F               	movlb	15	; () banked
  5514  000B06  9B11               	bcf	17,5,b	;volatile
  5515  000B08                     l488:
  5516                           
  5517                           ; BSR set to: 15
  5518                           ;can\CANlib.h: 1022: if (filter & 0x00080000)
  5519  000B08  0100               	movlb	0	; () banked
  5520  000B0A  A775               	btfss	(CANSetFilter@filter+2)& (0+255),3,b
  5521  000B0C  D003               	goto	l489
  5522                           
  5523                           ; BSR set to: 0
  5524                           ;can\CANlib.h: 1023: RXF4SIDLbits.SID1 = 0x01;
  5525  000B0E  010F               	movlb	15	; () banked
  5526  000B10  8D11               	bsf	17,6,b	;volatile
  5527  000B12  D002               	goto	l490
  5528  000B14                     l489:
  5529                           
  5530                           ; BSR set to: 0
  5531                           ;can\CANlib.h: 1024: else
  5532                           ;can\CANlib.h: 1025: RXF4SIDLbits.SID1 = 0x00;
  5533  000B14  010F               	movlb	15	; () banked
  5534  000B16  9D11               	bcf	17,6,b	;volatile
  5535  000B18                     l490:
  5536                           
  5537                           ; BSR set to: 15
  5538                           ;can\CANlib.h: 1027: if (filter & 0x00100000)
  5539  000B18  0100               	movlb	0	; () banked
  5540  000B1A  A975               	btfss	(CANSetFilter@filter+2)& (0+255),4,b
  5541  000B1C  D003               	goto	l491
  5542                           
  5543                           ; BSR set to: 0
  5544                           ;can\CANlib.h: 1028: RXF4SIDLbits.SID2 = 0x01 ;
  5545  000B1E  010F               	movlb	15	; () banked
  5546  000B20  8F11               	bsf	17,7,b	;volatile
  5547  000B22  D002               	goto	l2971
  5548  000B24                     l491:
  5549                           
  5550                           ; BSR set to: 0
  5551                           ;can\CANlib.h: 1029: else
  5552                           ;can\CANlib.h: 1030: RXF4SIDLbits.SID2 = 0x00 ;
  5553  000B24  010F               	movlb	15	; () banked
  5554  000B26  9F11               	bcf	17,7,b	;volatile
  5555  000B28                     l2971:
  5556                           
  5557                           ; BSR set to: 15
  5558                           ;can\CANlib.h: 1032: tamp = (filter >> 21);
  5559  000B28  C073  F078         	movff	CANSetFilter@filter,??_CANSetFilter
  5560  000B2C  C074  F079         	movff	CANSetFilter@filter+1,??_CANSetFilter+1
  5561  000B30  C075  F07A         	movff	CANSetFilter@filter+2,??_CANSetFilter+2
  5562  000B34  C076  F07B         	movff	CANSetFilter@filter+3,??_CANSetFilter+3
  5563  000B38  0E16               	movlw	22
  5564  000B3A  D006               	goto	u3260
  5565  000B3C                     u3265:
  5566  000B3C  0100               	movlb	0	; () banked
  5567  000B3E  90D8               	bcf	status,0,c
  5568  000B40  337B               	rrcf	(??_CANSetFilter+3)& (0+255),f,b
  5569  000B42  337A               	rrcf	(??_CANSetFilter+2)& (0+255),f,b
  5570  000B44  3379               	rrcf	(??_CANSetFilter+1)& (0+255),f,b
  5571  000B46  3378               	rrcf	??_CANSetFilter& (0+255),f,b
  5572  000B48                     u3260:
  5573  000B48  2EE8               	decfsz	wreg,f,c
  5574  000B4A  D7F8               	goto	u3265
  5575  000B4C  C078  F07D         	movff	??_CANSetFilter,CANSetFilter@tamp
  5576  000B50  C079  F07E         	movff	??_CANSetFilter+1,CANSetFilter@tamp+1
  5577  000B54  C07A  F07F         	movff	??_CANSetFilter+2,CANSetFilter@tamp+2
  5578  000B58  C07B  F080         	movff	??_CANSetFilter+3,CANSetFilter@tamp+3
  5579                           
  5580                           ; BSR set to: 0
  5581                           ;can\CANlib.h: 1033: tamp = tamp & 0x000000FF;
  5582  000B5C  0100               	movlb	0	; () banked
  5583  000B5E  517D               	movf	CANSetFilter@tamp& (0+255),w,b
  5584  000B60  0100               	movlb	0	; () banked
  5585  000B62  6F7D               	movwf	CANSetFilter@tamp& (0+255),b
  5586  000B64  6B7E               	clrf	(CANSetFilter@tamp+1)& (0+255),b
  5587  000B66  6B7F               	clrf	(CANSetFilter@tamp+2)& (0+255),b
  5588  000B68  6B80               	clrf	(CANSetFilter@tamp+3)& (0+255),b
  5589                           
  5590                           ; BSR set to: 0
  5591                           ;can\CANlib.h: 1034: RXF4SIDH = (unsigned char) tamp;
  5592  000B6A  C07D  FF10         	movff	CANSetFilter@tamp,3856	;volatile
  5593  000B6E                     l2977:
  5594                           
  5595                           ; BSR set to: 0
  5596                           ;can\CANlib.h: 1035: }
  5597                           ;can\CANlib.h: 1037: if ((numBuffer ==CAN_FILTER_B2_F4) && (type == CAN_CONFIG_XTD_MSG))
  5598  000B6E  0E05               	movlw	5
  5599  000B70  0100               	movlb	0	; () banked
  5600  000B72  197C               	xorwf	CANSetFilter@numBuffer& (0+255),w,b
  5601  000B74  A4D8               	btfss	status,2,c
  5602  000B76  0012               	return	
  5603                           
  5604                           ; BSR set to: 0
  5605  000B78  0EF7               	movlw	247
  5606  000B7A  0100               	movlb	0	; () banked
  5607  000B7C  1977               	xorwf	CANSetFilter@type& (0+255),w,b
  5608  000B7E  A4D8               	btfss	status,2,c
  5609  000B80  0012               	return	
  5610                           
  5611                           ; BSR set to: 0
  5612                           ;can\CANlib.h: 1038: {
  5613                           ;can\CANlib.h: 1039: RXF5SIDLbits.EXIDEN = 0x01;
  5614  000B82  010F               	movlb	15	; () banked
  5615  000B84  8715               	bsf	21,3,b	;volatile
  5616                           
  5617                           ; BSR set to: 15
  5618                           ;can\CANlib.h: 1041: tamp = filter & 0x000000FF;
  5619  000B86  0100               	movlb	0	; () banked
  5620  000B88  5173               	movf	CANSetFilter@filter& (0+255),w,b
  5621  000B8A  0100               	movlb	0	; () banked
  5622  000B8C  6F7D               	movwf	CANSetFilter@tamp& (0+255),b
  5623  000B8E  6B7E               	clrf	(CANSetFilter@tamp+1)& (0+255),b
  5624  000B90  6B7F               	clrf	(CANSetFilter@tamp+2)& (0+255),b
  5625  000B92  6B80               	clrf	(CANSetFilter@tamp+3)& (0+255),b
  5626                           
  5627                           ; BSR set to: 0
  5628                           ;can\CANlib.h: 1042: RXF5EIDL = (unsigned char) tamp;
  5629  000B94  C07D  FF17         	movff	CANSetFilter@tamp,3863	;volatile
  5630                           
  5631                           ; BSR set to: 0
  5632                           ;can\CANlib.h: 1044: tamp = filter & 0x0000FF00;
  5633  000B98  0E00               	movlw	0
  5634  000B9A  0100               	movlb	0	; () banked
  5635  000B9C  1573               	andwf	CANSetFilter@filter& (0+255),w,b
  5636  000B9E  0100               	movlb	0	; () banked
  5637  000BA0  6F7D               	movwf	CANSetFilter@tamp& (0+255),b
  5638  000BA2  0EFF               	movlw	255
  5639  000BA4  0100               	movlb	0	; () banked
  5640  000BA6  1574               	andwf	(CANSetFilter@filter+1)& (0+255),w,b
  5641  000BA8  0100               	movlb	0	; () banked
  5642  000BAA  6F7E               	movwf	(CANSetFilter@tamp+1)& (0+255),b
  5643  000BAC  0E00               	movlw	0
  5644  000BAE  0100               	movlb	0	; () banked
  5645  000BB0  1575               	andwf	(CANSetFilter@filter+2)& (0+255),w,b
  5646  000BB2  0100               	movlb	0	; () banked
  5647  000BB4  6F7F               	movwf	(CANSetFilter@tamp+2)& (0+255),b
  5648  000BB6  0E00               	movlw	0
  5649  000BB8  0100               	movlb	0	; () banked
  5650  000BBA  1576               	andwf	(CANSetFilter@filter+3)& (0+255),w,b
  5651  000BBC  0100               	movlb	0	; () banked
  5652  000BBE  6F80               	movwf	(CANSetFilter@tamp+3)& (0+255),b
  5653                           
  5654                           ; BSR set to: 0
  5655                           ;can\CANlib.h: 1045: tamp = tamp >> 8;
  5656  000BC0  C07D  F078         	movff	CANSetFilter@tamp,??_CANSetFilter
  5657  000BC4  C07E  F079         	movff	CANSetFilter@tamp+1,??_CANSetFilter+1
  5658  000BC8  C07F  F07A         	movff	CANSetFilter@tamp+2,??_CANSetFilter+2
  5659  000BCC  C080  F07B         	movff	CANSetFilter@tamp+3,??_CANSetFilter+3
  5660  000BD0  C079  F078         	movff	??_CANSetFilter+1,??_CANSetFilter
  5661  000BD4  C07A  F079         	movff	??_CANSetFilter+2,??_CANSetFilter+1
  5662  000BD8  C07B  F07A         	movff	??_CANSetFilter+3,??_CANSetFilter+2
  5663  000BDC  0100               	movlb	0	; () banked
  5664  000BDE  6B7B               	clrf	(??_CANSetFilter+3)& (0+255),b
  5665  000BE0  C078  F07D         	movff	??_CANSetFilter,CANSetFilter@tamp
  5666  000BE4  C079  F07E         	movff	??_CANSetFilter+1,CANSetFilter@tamp+1
  5667  000BE8  C07A  F07F         	movff	??_CANSetFilter+2,CANSetFilter@tamp+2
  5668  000BEC  C07B  F080         	movff	??_CANSetFilter+3,CANSetFilter@tamp+3
  5669                           
  5670                           ; BSR set to: 0
  5671                           ;can\CANlib.h: 1046: RXF5EIDH = (unsigned char) tamp;
  5672  000BF0  C07D  FF16         	movff	CANSetFilter@tamp,3862	;volatile
  5673                           
  5674                           ; BSR set to: 0
  5675                           ;can\CANlib.h: 1048: if (filter & 0x00010000)
  5676  000BF4  0100               	movlb	0	; () banked
  5677  000BF6  A175               	btfss	(CANSetFilter@filter+2)& (0+255),0,b
  5678  000BF8  D003               	goto	l494
  5679                           
  5680                           ; BSR set to: 0
  5681                           ;can\CANlib.h: 1049: RXF5SIDLbits.EID16 = 0x01;
  5682  000BFA  010F               	movlb	15	; () banked
  5683  000BFC  8115               	bsf	21,0,b	;volatile
  5684  000BFE  D002               	goto	l495
  5685  000C00                     l494:
  5686                           
  5687                           ; BSR set to: 0
  5688                           ;can\CANlib.h: 1050: else
  5689                           ;can\CANlib.h: 1051: RXF5SIDLbits.EID16 = 0x00;
  5690  000C00  010F               	movlb	15	; () banked
  5691  000C02  9115               	bcf	21,0,b	;volatile
  5692  000C04                     l495:
  5693                           
  5694                           ; BSR set to: 15
  5695                           ;can\CANlib.h: 1053: if (filter & 0x00020000)
  5696  000C04  0100               	movlb	0	; () banked
  5697  000C06  A375               	btfss	(CANSetFilter@filter+2)& (0+255),1,b
  5698  000C08  D003               	goto	l496
  5699                           
  5700                           ; BSR set to: 0
  5701                           ;can\CANlib.h: 1054: RXF5SIDLbits.EID17 = 0x01;
  5702  000C0A  010F               	movlb	15	; () banked
  5703  000C0C  8315               	bsf	21,1,b	;volatile
  5704  000C0E  D002               	goto	l497
  5705  000C10                     l496:
  5706                           
  5707                           ; BSR set to: 0
  5708                           ;can\CANlib.h: 1055: else
  5709                           ;can\CANlib.h: 1056: RXF5SIDLbits.EID17 = 0x00;
  5710  000C10  010F               	movlb	15	; () banked
  5711  000C12  9315               	bcf	21,1,b	;volatile
  5712  000C14                     l497:
  5713                           
  5714                           ; BSR set to: 15
  5715                           ;can\CANlib.h: 1058: if (filter & 0x00040000)
  5716  000C14  0100               	movlb	0	; () banked
  5717  000C16  A575               	btfss	(CANSetFilter@filter+2)& (0+255),2,b
  5718  000C18  D003               	goto	l498
  5719                           
  5720                           ; BSR set to: 0
  5721                           ;can\CANlib.h: 1059: RXF5SIDLbits.SID0 = 0x01;
  5722  000C1A  010F               	movlb	15	; () banked
  5723  000C1C  8B15               	bsf	21,5,b	;volatile
  5724  000C1E  D002               	goto	l499
  5725  000C20                     l498:
  5726                           
  5727                           ; BSR set to: 0
  5728                           ;can\CANlib.h: 1060: else
  5729                           ;can\CANlib.h: 1061: RXF5SIDLbits.SID0 = 0x00;
  5730  000C20  010F               	movlb	15	; () banked
  5731  000C22  9B15               	bcf	21,5,b	;volatile
  5732  000C24                     l499:
  5733                           
  5734                           ; BSR set to: 15
  5735                           ;can\CANlib.h: 1063: if (filter & 0x00080000)
  5736  000C24  0100               	movlb	0	; () banked
  5737  000C26  A775               	btfss	(CANSetFilter@filter+2)& (0+255),3,b
  5738  000C28  D003               	goto	l500
  5739                           
  5740                           ; BSR set to: 0
  5741                           ;can\CANlib.h: 1064: RXF5SIDLbits.SID1 = 0x01;
  5742  000C2A  010F               	movlb	15	; () banked
  5743  000C2C  8D15               	bsf	21,6,b	;volatile
  5744  000C2E  D002               	goto	l501
  5745  000C30                     l500:
  5746                           
  5747                           ; BSR set to: 0
  5748                           ;can\CANlib.h: 1065: else
  5749                           ;can\CANlib.h: 1066: RXF5SIDLbits.SID1 = 0x00;
  5750  000C30  010F               	movlb	15	; () banked
  5751  000C32  9D15               	bcf	21,6,b	;volatile
  5752  000C34                     l501:
  5753                           
  5754                           ; BSR set to: 15
  5755                           ;can\CANlib.h: 1068: if (filter & 0x00100000)
  5756  000C34  0100               	movlb	0	; () banked
  5757  000C36  A975               	btfss	(CANSetFilter@filter+2)& (0+255),4,b
  5758  000C38  D003               	goto	l502
  5759                           
  5760                           ; BSR set to: 0
  5761                           ;can\CANlib.h: 1069: RXF5SIDLbits.SID2 = 0x01 ;
  5762  000C3A  010F               	movlb	15	; () banked
  5763  000C3C  8F15               	bsf	21,7,b	;volatile
  5764  000C3E  D002               	goto	l3005
  5765  000C40                     l502:
  5766                           
  5767                           ; BSR set to: 0
  5768                           ;can\CANlib.h: 1070: else
  5769                           ;can\CANlib.h: 1071: RXF5SIDLbits.SID2 = 0x00 ;
  5770  000C40  010F               	movlb	15	; () banked
  5771  000C42  9F15               	bcf	21,7,b	;volatile
  5772  000C44                     l3005:
  5773                           
  5774                           ; BSR set to: 15
  5775                           ;can\CANlib.h: 1073: tamp = (filter >> 21);
  5776  000C44  C073  F078         	movff	CANSetFilter@filter,??_CANSetFilter
  5777  000C48  C074  F079         	movff	CANSetFilter@filter+1,??_CANSetFilter+1
  5778  000C4C  C075  F07A         	movff	CANSetFilter@filter+2,??_CANSetFilter+2
  5779  000C50  C076  F07B         	movff	CANSetFilter@filter+3,??_CANSetFilter+3
  5780  000C54  0E16               	movlw	22
  5781  000C56  D006               	goto	u3340
  5782  000C58                     u3345:
  5783  000C58  0100               	movlb	0	; () banked
  5784  000C5A  90D8               	bcf	status,0,c
  5785  000C5C  337B               	rrcf	(??_CANSetFilter+3)& (0+255),f,b
  5786  000C5E  337A               	rrcf	(??_CANSetFilter+2)& (0+255),f,b
  5787  000C60  3379               	rrcf	(??_CANSetFilter+1)& (0+255),f,b
  5788  000C62  3378               	rrcf	??_CANSetFilter& (0+255),f,b
  5789  000C64                     u3340:
  5790  000C64  2EE8               	decfsz	wreg,f,c
  5791  000C66  D7F8               	goto	u3345
  5792  000C68  C078  F07D         	movff	??_CANSetFilter,CANSetFilter@tamp
  5793  000C6C  C079  F07E         	movff	??_CANSetFilter+1,CANSetFilter@tamp+1
  5794  000C70  C07A  F07F         	movff	??_CANSetFilter+2,CANSetFilter@tamp+2
  5795  000C74  C07B  F080         	movff	??_CANSetFilter+3,CANSetFilter@tamp+3
  5796                           
  5797                           ; BSR set to: 0
  5798                           ;can\CANlib.h: 1074: tamp = tamp & 0x000000FF;
  5799  000C78  0100               	movlb	0	; () banked
  5800  000C7A  517D               	movf	CANSetFilter@tamp& (0+255),w,b
  5801  000C7C  0100               	movlb	0	; () banked
  5802  000C7E  6F7D               	movwf	CANSetFilter@tamp& (0+255),b
  5803  000C80  6B7E               	clrf	(CANSetFilter@tamp+1)& (0+255),b
  5804  000C82  6B7F               	clrf	(CANSetFilter@tamp+2)& (0+255),b
  5805  000C84  6B80               	clrf	(CANSetFilter@tamp+3)& (0+255),b
  5806                           
  5807                           ; BSR set to: 0
  5808                           ;can\CANlib.h: 1075: RXF5SIDH = (unsigned char) tamp;
  5809  000C86  C07D  FF14         	movff	CANSetFilter@tamp,3860	;volatile
  5810  000C8A  0012               	return	
  5811  000C8C                     __end_of_CANSetFilter:
  5812                           	opt stack 0
  5813                           tblptru	equ	0xFF8
  5814                           tblptrh	equ	0xFF7
  5815                           tblptrl	equ	0xFF6
  5816                           tablat	equ	0xFF5
  5817                           prodh	equ	0xFF4
  5818                           prodl	equ	0xFF3
  5819                           intcon	equ	0xFF2
  5820                           intcon2	equ	0xFF1
  5821                           postinc0	equ	0xFEE
  5822                           wreg	equ	0xFE8
  5823                           indf2	equ	0xFDF
  5824                           fsr2h	equ	0xFDA
  5825                           fsr2l	equ	0xFD9
  5826                           status	equ	0xFD8
  5827                           
  5828 ;; *************** function _CANOperationMode *****************
  5829 ;; Defined at:
  5830 ;;		line 206 in file "../../Scuola/Triennio/Tesina/can\CANlib.h"
  5831 ;; Parameters:    Size  Location     Type
  5832 ;;  mode            1    wreg     enum E16838
  5833 ;; Auto vars:     Size  Location     Type
  5834 ;;  mode            1   19[BANK0 ] enum E16838
  5835 ;; Return value:  Size  Location     Type
  5836 ;;		None               void
  5837 ;; Registers used:
  5838 ;;		wreg, status,2, status,0
  5839 ;; Tracked objects:
  5840 ;;		On entry : 0/0
  5841 ;;		On exit  : 0/0
  5842 ;;		Unchanged: 0/0
  5843 ;; Data sizes:     COMRAM   BANK0   BANK1   BANK2
  5844 ;;      Params:         0       0       0       0
  5845 ;;      Locals:         0       1       0       0
  5846 ;;      Temps:          0       0       0       0
  5847 ;;      Totals:         0       1       0       0
  5848 ;;Total ram usage:        1 bytes
  5849 ;; Hardware stack levels used:    1
  5850 ;; Hardware stack levels required when called:    4
  5851 ;; This function calls:
  5852 ;;		Nothing
  5853 ;; This function is called by:
  5854 ;;		_CANInitialize
  5855 ;; This function uses a non-reentrant model
  5856 ;;
  5857                           
  5858                           	psect	text10
  5859  002A62                     __ptext10:
  5860                           	opt stack 0
  5861  002A62                     _CANOperationMode:
  5862                           	opt stack 24
  5863                           
  5864                           ; BSR set to: 0
  5865                           ;incstack = 0
  5866                           ;CANOperationMode@mode stored from wreg
  5867  002A62  0100               	movlb	0	; () banked
  5868  002A64  6F73               	movwf	CANOperationMode@mode& (0+255),b
  5869                           
  5870                           ;can\CANlib.h: 208: CANCON = mode;
  5871  002A66  C073  FF6F         	movff	CANOperationMode@mode,3951	;volatile
  5872  002A6A                     l2601:
  5873  002A6A  506E               	movf	3950,w,c	;volatile
  5874  002A6C  0BE0               	andlw	224
  5875  002A6E  0100               	movlb	0	; () banked
  5876  002A70  1973               	xorwf	CANOperationMode@mode& (0+255),w,b
  5877  002A72  B4D8               	btfsc	status,2,c
  5878  002A74  0012               	return	
  5879  002A76  D7F9               	goto	l2601
  5880  002A78                     __end_of_CANOperationMode:
  5881                           	opt stack 0
  5882                           tblptru	equ	0xFF8
  5883                           tblptrh	equ	0xFF7
  5884                           tblptrl	equ	0xFF6
  5885                           tablat	equ	0xFF5
  5886                           prodh	equ	0xFF4
  5887                           prodl	equ	0xFF3
  5888                           intcon	equ	0xFF2
  5889                           intcon2	equ	0xFF1
  5890                           postinc0	equ	0xFEE
  5891                           wreg	equ	0xFE8
  5892                           indf2	equ	0xFDF
  5893                           fsr2h	equ	0xFDA
  5894                           fsr2l	equ	0xFD9
  5895                           status	equ	0xFD8
  5896                           
  5897 ;; *************** function ___lmul *****************
  5898 ;; Defined at:
  5899 ;;		line 15 in file "P:\Programmi\Microchip\xc8\v1.35\sources\common\Umul32.c"
  5900 ;; Parameters:    Size  Location     Type
  5901 ;;  multiplier      4   19[BANK0 ] unsigned long 
  5902 ;;  multiplicand    4   23[BANK0 ] unsigned long 
  5903 ;; Auto vars:     Size  Location     Type
  5904 ;;  product         4   27[BANK0 ] unsigned long 
  5905 ;; Return value:  Size  Location     Type
  5906 ;;                  4   19[BANK0 ] unsigned long 
  5907 ;; Registers used:
  5908 ;;		wreg, status,2, status,0
  5909 ;; Tracked objects:
  5910 ;;		On entry : 0/0
  5911 ;;		On exit  : 0/0
  5912 ;;		Unchanged: 0/0
  5913 ;; Data sizes:     COMRAM   BANK0   BANK1   BANK2
  5914 ;;      Params:         0       8       0       0
  5915 ;;      Locals:         0       4       0       0
  5916 ;;      Temps:          0       0       0       0
  5917 ;;      Totals:         0      12       0       0
  5918 ;;Total ram usage:       12 bytes
  5919 ;; Hardware stack levels used:    1
  5920 ;; Hardware stack levels required when called:    4
  5921 ;; This function calls:
  5922 ;;		Nothing
  5923 ;; This function is called by:
  5924 ;;		_main
  5925 ;; This function uses a non-reentrant model
  5926 ;;
  5927                           
  5928                           	psect	text11
  5929  0027DC                     __ptext11:
  5930                           	opt stack 0
  5931  0027DC                     ___lmul:
  5932                           	opt stack 26
  5933                           
  5934                           ; BSR set to: 0
  5935                           ;incstack = 0
  5936  0027DC  0E00               	movlw	0
  5937  0027DE  0100               	movlb	0	; () banked
  5938  0027E0  6F7B               	movwf	___lmul@product& (0+255),b
  5939  0027E2  0E00               	movlw	0
  5940  0027E4  6F7C               	movwf	(___lmul@product+1)& (0+255),b
  5941  0027E6  0E00               	movlw	0
  5942  0027E8  6F7D               	movwf	(___lmul@product+2)& (0+255),b
  5943  0027EA  0E00               	movlw	0
  5944  0027EC  6F7E               	movwf	(___lmul@product+3)& (0+255),b
  5945  0027EE                     l3537:
  5946                           
  5947                           ; BSR set to: 0
  5948  0027EE  0100               	movlb	0	; () banked
  5949  0027F0  A173               	btfss	___lmul@multiplier& (0+255),0,b
  5950  0027F2  D010               	goto	l3541
  5951                           
  5952                           ; BSR set to: 0
  5953  0027F4  0100               	movlb	0	; () banked
  5954  0027F6  5177               	movf	___lmul@multiplicand& (0+255),w,b
  5955  0027F8  0100               	movlb	0	; () banked
  5956  0027FA  277B               	addwf	___lmul@product& (0+255),f,b
  5957  0027FC  0100               	movlb	0	; () banked
  5958  0027FE  5178               	movf	(___lmul@multiplicand+1)& (0+255),w,b
  5959  002800  0100               	movlb	0	; () banked
  5960  002802  237C               	addwfc	(___lmul@product+1)& (0+255),f,b
  5961  002804  0100               	movlb	0	; () banked
  5962  002806  5179               	movf	(___lmul@multiplicand+2)& (0+255),w,b
  5963  002808  0100               	movlb	0	; () banked
  5964  00280A  237D               	addwfc	(___lmul@product+2)& (0+255),f,b
  5965  00280C  0100               	movlb	0	; () banked
  5966  00280E  517A               	movf	(___lmul@multiplicand+3)& (0+255),w,b
  5967  002810  0100               	movlb	0	; () banked
  5968  002812  237E               	addwfc	(___lmul@product+3)& (0+255),f,b
  5969  002814                     l3541:
  5970                           
  5971                           ; BSR set to: 0
  5972  002814  0100               	movlb	0	; () banked
  5973  002816  90D8               	bcf	status,0,c
  5974  002818  3777               	rlcf	___lmul@multiplicand& (0+255),f,b
  5975  00281A  3778               	rlcf	(___lmul@multiplicand+1)& (0+255),f,b
  5976  00281C  3779               	rlcf	(___lmul@multiplicand+2)& (0+255),f,b
  5977  00281E  377A               	rlcf	(___lmul@multiplicand+3)& (0+255),f,b
  5978                           
  5979                           ; BSR set to: 0
  5980  002820  0100               	movlb	0	; () banked
  5981  002822  90D8               	bcf	status,0,c
  5982  002824  3376               	rrcf	(___lmul@multiplier+3)& (0+255),f,b
  5983  002826  3375               	rrcf	(___lmul@multiplier+2)& (0+255),f,b
  5984  002828  3374               	rrcf	(___lmul@multiplier+1)& (0+255),f,b
  5985  00282A  3373               	rrcf	___lmul@multiplier& (0+255),f,b
  5986  00282C  0100               	movlb	0	; () banked
  5987  00282E  5173               	movf	___lmul@multiplier& (0+255),w,b
  5988  002830  0100               	movlb	0	; () banked
  5989  002832  1174               	iorwf	(___lmul@multiplier+1)& (0+255),w,b
  5990  002834  0100               	movlb	0	; () banked
  5991  002836  1175               	iorwf	(___lmul@multiplier+2)& (0+255),w,b
  5992  002838  0100               	movlb	0	; () banked
  5993  00283A  1176               	iorwf	(___lmul@multiplier+3)& (0+255),w,b
  5994  00283C  A4D8               	btfss	status,2,c
  5995  00283E  D7D7               	goto	l3537
  5996                           
  5997                           ; BSR set to: 0
  5998  002840  C07B  F073         	movff	___lmul@product,?___lmul
  5999  002844  C07C  F074         	movff	___lmul@product+1,?___lmul+1
  6000  002848  C07D  F075         	movff	___lmul@product+2,?___lmul+2
  6001  00284C  C07E  F076         	movff	___lmul@product+3,?___lmul+3
  6002                           
  6003                           ; BSR set to: 0
  6004  002850  0012               	return		;funcret
  6005  002852                     __end_of___lmul:
  6006                           	opt stack 0
  6007                           tblptru	equ	0xFF8
  6008                           tblptrh	equ	0xFF7
  6009                           tblptrl	equ	0xFF6
  6010                           tablat	equ	0xFF5
  6011                           prodh	equ	0xFF4
  6012                           prodl	equ	0xFF3
  6013                           intcon	equ	0xFF2
  6014                           intcon2	equ	0xFF1
  6015                           postinc0	equ	0xFEE
  6016                           wreg	equ	0xFE8
  6017                           indf2	equ	0xFDF
  6018                           fsr2h	equ	0xFDA
  6019                           fsr2l	equ	0xFD9
  6020                           status	equ	0xFD8
  6021                           
  6022 ;; *************** function ___lldiv *****************
  6023 ;; Defined at:
  6024 ;;		line 8 in file "P:\Programmi\Microchip\xc8\v1.35\sources\common\lldiv.c"
  6025 ;; Parameters:    Size  Location     Type
  6026 ;;  dividend        4   31[BANK0 ] unsigned long 
  6027 ;;  divisor         4   35[BANK0 ] unsigned long 
  6028 ;; Auto vars:     Size  Location     Type
  6029 ;;  quotient        4   39[BANK0 ] unsigned long 
  6030 ;;  counter         1   43[BANK0 ] unsigned char 
  6031 ;; Return value:  Size  Location     Type
  6032 ;;                  4   31[BANK0 ] unsigned long 
  6033 ;; Registers used:
  6034 ;;		wreg, status,2, status,0
  6035 ;; Tracked objects:
  6036 ;;		On entry : 0/0
  6037 ;;		On exit  : 0/0
  6038 ;;		Unchanged: 0/0
  6039 ;; Data sizes:     COMRAM   BANK0   BANK1   BANK2
  6040 ;;      Params:         0       8       0       0
  6041 ;;      Locals:         0       5       0       0
  6042 ;;      Temps:          0       0       0       0
  6043 ;;      Totals:         0      13       0       0
  6044 ;;Total ram usage:       13 bytes
  6045 ;; Hardware stack levels used:    1
  6046 ;; Hardware stack levels required when called:    4
  6047 ;; This function calls:
  6048 ;;		Nothing
  6049 ;; This function is called by:
  6050 ;;		_main
  6051 ;; This function uses a non-reentrant model
  6052 ;;
  6053                           
  6054                           	psect	text12
  6055  00266A                     __ptext12:
  6056                           	opt stack 0
  6057  00266A                     ___lldiv:
  6058                           	opt stack 26
  6059                           
  6060                           ; BSR set to: 0
  6061                           ;incstack = 0
  6062  00266A  0E00               	movlw	0
  6063  00266C  0100               	movlb	0	; () banked
  6064  00266E  6F87               	movwf	___lldiv@quotient& (0+255),b
  6065  002670  0E00               	movlw	0
  6066  002672  6F88               	movwf	(___lldiv@quotient+1)& (0+255),b
  6067  002674  0E00               	movlw	0
  6068  002676  6F89               	movwf	(___lldiv@quotient+2)& (0+255),b
  6069  002678  0E00               	movlw	0
  6070  00267A  6F8A               	movwf	(___lldiv@quotient+3)& (0+255),b
  6071                           
  6072                           ; BSR set to: 0
  6073  00267C  0100               	movlb	0	; () banked
  6074  00267E  5183               	movf	___lldiv@divisor& (0+255),w,b
  6075  002680  0100               	movlb	0	; () banked
  6076  002682  1184               	iorwf	(___lldiv@divisor+1)& (0+255),w,b
  6077  002684  0100               	movlb	0	; () banked
  6078  002686  1185               	iorwf	(___lldiv@divisor+2)& (0+255),w,b
  6079  002688  0100               	movlb	0	; () banked
  6080  00268A  1186               	iorwf	(___lldiv@divisor+3)& (0+255),w,b
  6081  00268C  B4D8               	btfsc	status,2,c
  6082  00268E  D042               	goto	l973
  6083                           
  6084                           ; BSR set to: 0
  6085  002690  0E01               	movlw	1
  6086  002692  0100               	movlb	0	; () banked
  6087  002694  6F8B               	movwf	___lldiv@counter& (0+255),b
  6088  002696  D008               	goto	l3553
  6089  002698                     l3551:
  6090                           
  6091                           ; BSR set to: 0
  6092  002698  0100               	movlb	0	; () banked
  6093  00269A  90D8               	bcf	status,0,c
  6094  00269C  3783               	rlcf	___lldiv@divisor& (0+255),f,b
  6095  00269E  3784               	rlcf	(___lldiv@divisor+1)& (0+255),f,b
  6096  0026A0  3785               	rlcf	(___lldiv@divisor+2)& (0+255),f,b
  6097  0026A2  3786               	rlcf	(___lldiv@divisor+3)& (0+255),f,b
  6098  0026A4  0100               	movlb	0	; () banked
  6099  0026A6  2B8B               	incf	___lldiv@counter& (0+255),f,b
  6100  0026A8                     l3553:
  6101                           
  6102                           ; BSR set to: 0
  6103  0026A8  0100               	movlb	0	; () banked
  6104  0026AA  AF86               	btfss	(___lldiv@divisor+3)& (0+255),7,b
  6105  0026AC  D7F5               	goto	l3551
  6106  0026AE                     l3555:
  6107                           
  6108                           ; BSR set to: 0
  6109  0026AE  0100               	movlb	0	; () banked
  6110  0026B0  90D8               	bcf	status,0,c
  6111  0026B2  3787               	rlcf	___lldiv@quotient& (0+255),f,b
  6112  0026B4  3788               	rlcf	(___lldiv@quotient+1)& (0+255),f,b
  6113  0026B6  3789               	rlcf	(___lldiv@quotient+2)& (0+255),f,b
  6114  0026B8  378A               	rlcf	(___lldiv@quotient+3)& (0+255),f,b
  6115                           
  6116                           ; BSR set to: 0
  6117  0026BA  0100               	movlb	0	; () banked
  6118  0026BC  5183               	movf	___lldiv@divisor& (0+255),w,b
  6119  0026BE  0100               	movlb	0	; () banked
  6120  0026C0  5D7F               	subwf	___lldiv@dividend& (0+255),w,b
  6121  0026C2  0100               	movlb	0	; () banked
  6122  0026C4  5184               	movf	(___lldiv@divisor+1)& (0+255),w,b
  6123  0026C6  0100               	movlb	0	; () banked
  6124  0026C8  5980               	subwfb	(___lldiv@dividend+1)& (0+255),w,b
  6125  0026CA  0100               	movlb	0	; () banked
  6126  0026CC  5185               	movf	(___lldiv@divisor+2)& (0+255),w,b
  6127  0026CE  0100               	movlb	0	; () banked
  6128  0026D0  5981               	subwfb	(___lldiv@dividend+2)& (0+255),w,b
  6129  0026D2  0100               	movlb	0	; () banked
  6130  0026D4  5186               	movf	(___lldiv@divisor+3)& (0+255),w,b
  6131  0026D6  0100               	movlb	0	; () banked
  6132  0026D8  5982               	subwfb	(___lldiv@dividend+3)& (0+255),w,b
  6133  0026DA  A0D8               	btfss	status,0,c
  6134  0026DC  D012               	goto	l3563
  6135                           
  6136                           ; BSR set to: 0
  6137  0026DE  0100               	movlb	0	; () banked
  6138  0026E0  5183               	movf	___lldiv@divisor& (0+255),w,b
  6139  0026E2  0100               	movlb	0	; () banked
  6140  0026E4  5F7F               	subwf	___lldiv@dividend& (0+255),f,b
  6141  0026E6  0100               	movlb	0	; () banked
  6142  0026E8  5184               	movf	(___lldiv@divisor+1)& (0+255),w,b
  6143  0026EA  0100               	movlb	0	; () banked
  6144  0026EC  5B80               	subwfb	(___lldiv@dividend+1)& (0+255),f,b
  6145  0026EE  0100               	movlb	0	; () banked
  6146  0026F0  5185               	movf	(___lldiv@divisor+2)& (0+255),w,b
  6147  0026F2  0100               	movlb	0	; () banked
  6148  0026F4  5B81               	subwfb	(___lldiv@dividend+2)& (0+255),f,b
  6149  0026F6  0100               	movlb	0	; () banked
  6150  0026F8  5186               	movf	(___lldiv@divisor+3)& (0+255),w,b
  6151  0026FA  0100               	movlb	0	; () banked
  6152  0026FC  5B82               	subwfb	(___lldiv@dividend+3)& (0+255),f,b
  6153                           
  6154                           ; BSR set to: 0
  6155  0026FE  0100               	movlb	0	; () banked
  6156  002700  8187               	bsf	___lldiv@quotient& (0+255),0,b
  6157  002702                     l3563:
  6158                           
  6159                           ; BSR set to: 0
  6160  002702  0100               	movlb	0	; () banked
  6161  002704  90D8               	bcf	status,0,c
  6162  002706  3386               	rrcf	(___lldiv@divisor+3)& (0+255),f,b
  6163  002708  3385               	rrcf	(___lldiv@divisor+2)& (0+255),f,b
  6164  00270A  3384               	rrcf	(___lldiv@divisor+1)& (0+255),f,b
  6165  00270C  3383               	rrcf	___lldiv@divisor& (0+255),f,b
  6166                           
  6167                           ; BSR set to: 0
  6168  00270E  0100               	movlb	0	; () banked
  6169  002710  2F8B               	decfsz	___lldiv@counter& (0+255),f,b
  6170  002712  D7CD               	goto	l3555
  6171  002714                     l973:
  6172                           
  6173                           ; BSR set to: 0
  6174  002714  C087  F07F         	movff	___lldiv@quotient,?___lldiv
  6175  002718  C088  F080         	movff	___lldiv@quotient+1,?___lldiv+1
  6176  00271C  C089  F081         	movff	___lldiv@quotient+2,?___lldiv+2
  6177  002720  C08A  F082         	movff	___lldiv@quotient+3,?___lldiv+3
  6178                           
  6179                           ; BSR set to: 0
  6180  002724  0012               	return		;funcret
  6181  002726                     __end_of___lldiv:
  6182                           	opt stack 0
  6183                           tblptru	equ	0xFF8
  6184                           tblptrh	equ	0xFF7
  6185                           tblptrl	equ	0xFF6
  6186                           tablat	equ	0xFF5
  6187                           prodh	equ	0xFF4
  6188                           prodl	equ	0xFF3
  6189                           intcon	equ	0xFF2
  6190                           intcon2	equ	0xFF1
  6191                           postinc0	equ	0xFEE
  6192                           wreg	equ	0xFE8
  6193                           indf2	equ	0xFDF
  6194                           fsr2h	equ	0xFDA
  6195                           fsr2l	equ	0xFD9
  6196                           status	equ	0xFD8
  6197                           
  6198 ;; *************** function _CANisTXwarningON *****************
  6199 ;; Defined at:
  6200 ;;		line 1119 in file "../../Scuola/Triennio/Tesina/can\CANlib.h"
  6201 ;; Parameters:    Size  Location     Type
  6202 ;;		None
  6203 ;; Auto vars:     Size  Location     Type
  6204 ;;		None
  6205 ;; Return value:  Size  Location     Type
  6206 ;;                  1    wreg      unsigned char 
  6207 ;; Registers used:
  6208 ;;		wreg
  6209 ;; Tracked objects:
  6210 ;;		On entry : 0/0
  6211 ;;		On exit  : 0/0
  6212 ;;		Unchanged: 0/0
  6213 ;; Data sizes:     COMRAM   BANK0   BANK1   BANK2
  6214 ;;      Params:         0       0       0       0
  6215 ;;      Locals:         0       0       0       0
  6216 ;;      Temps:          0       0       0       0
  6217 ;;      Totals:         0       0       0       0
  6218 ;;Total ram usage:        0 bytes
  6219 ;; Hardware stack levels used:    1
  6220 ;; Hardware stack levels required when called:    4
  6221 ;; This function calls:
  6222 ;;		Nothing
  6223 ;; This function is called by:
  6224 ;;		_main
  6225 ;; This function uses a non-reentrant model
  6226 ;;
  6227                           
  6228                           	psect	text13
  6229  002AA0                     __ptext13:
  6230                           	opt stack 0
  6231  002AA0                     _CANisTXwarningON:
  6232                           	opt stack 26
  6233                           
  6234                           ;can\CANlib.h: 1121: return (COMSTATbits.TXWARN);
  6235                           
  6236                           ; BSR set to: 0
  6237                           ;incstack = 0
  6238  002AA0  A474               	btfss	3956,2,c	;volatile
  6239  002AA2  D002               	goto	u4050
  6240  002AA4  0E01               	movlw	1
  6241  002AA6  0012               	return	
  6242  002AA8                     u4050:
  6243  002AA8  0E00               	movlw	0
  6244  002AAA  0012               	return	
  6245  002AAC                     __end_of_CANisTXwarningON:
  6246                           	opt stack 0
  6247                           tblptru	equ	0xFF8
  6248                           tblptrh	equ	0xFF7
  6249                           tblptrl	equ	0xFF6
  6250                           tablat	equ	0xFF5
  6251                           prodh	equ	0xFF4
  6252                           prodl	equ	0xFF3
  6253                           intcon	equ	0xFF2
  6254                           intcon2	equ	0xFF1
  6255                           postinc0	equ	0xFEE
  6256                           wreg	equ	0xFE8
  6257                           indf2	equ	0xFDF
  6258                           fsr2h	equ	0xFDA
  6259                           fsr2l	equ	0xFD9
  6260                           status	equ	0xFD8
  6261                           
  6262 ;; *************** function _CANisRXwarningON *****************
  6263 ;; Defined at:
  6264 ;;		line 1127 in file "../../Scuola/Triennio/Tesina/can\CANlib.h"
  6265 ;; Parameters:    Size  Location     Type
  6266 ;;		None
  6267 ;; Auto vars:     Size  Location     Type
  6268 ;;		None
  6269 ;; Return value:  Size  Location     Type
  6270 ;;                  1    wreg      unsigned char 
  6271 ;; Registers used:
  6272 ;;		wreg
  6273 ;; Tracked objects:
  6274 ;;		On entry : 0/0
  6275 ;;		On exit  : 0/0
  6276 ;;		Unchanged: 0/0
  6277 ;; Data sizes:     COMRAM   BANK0   BANK1   BANK2
  6278 ;;      Params:         0       0       0       0
  6279 ;;      Locals:         0       0       0       0
  6280 ;;      Temps:          0       0       0       0
  6281 ;;      Totals:         0       0       0       0
  6282 ;;Total ram usage:        0 bytes
  6283 ;; Hardware stack levels used:    1
  6284 ;; Hardware stack levels required when called:    4
  6285 ;; This function calls:
  6286 ;;		Nothing
  6287 ;; This function is called by:
  6288 ;;		_main
  6289 ;; This function uses a non-reentrant model
  6290 ;;
  6291                           
  6292                           	psect	text14
  6293  002AAC                     __ptext14:
  6294                           	opt stack 0
  6295  002AAC                     _CANisRXwarningON:
  6296                           	opt stack 26
  6297                           
  6298                           ;can\CANlib.h: 1129: return (COMSTATbits.RXWARN);
  6299                           
  6300                           ;incstack = 0
  6301  002AAC  A274               	btfss	3956,1,c	;volatile
  6302  002AAE  D002               	goto	u4060
  6303  002AB0  0E01               	movlw	1
  6304  002AB2  0012               	return	
  6305  002AB4                     u4060:
  6306  002AB4  0E00               	movlw	0
  6307  002AB6  0012               	return	
  6308  002AB8                     __end_of_CANisRXwarningON:
  6309                           	opt stack 0
  6310                           tblptru	equ	0xFF8
  6311                           tblptrh	equ	0xFF7
  6312                           tblptrl	equ	0xFF6
  6313                           tablat	equ	0xFF5
  6314                           prodh	equ	0xFF4
  6315                           prodl	equ	0xFF3
  6316                           intcon	equ	0xFF2
  6317                           intcon2	equ	0xFF1
  6318                           postinc0	equ	0xFEE
  6319                           wreg	equ	0xFE8
  6320                           indf2	equ	0xFDF
  6321                           fsr2h	equ	0xFDA
  6322                           fsr2l	equ	0xFD9
  6323                           status	equ	0xFD8
  6324                           
  6325 ;; *************** function _ISR_bassa *****************
  6326 ;; Defined at:
  6327 ;;		line 85 in file "sterzo.c"
  6328 ;; Parameters:    Size  Location     Type
  6329 ;;		None
  6330 ;; Auto vars:     Size  Location     Type
  6331 ;;		None
  6332 ;; Return value:  Size  Location     Type
  6333 ;;		None               void
  6334 ;; Registers used:
  6335 ;;		wreg, fsr2l, fsr2h, status,2, status,0, prodl, prodh, cstack
  6336 ;; Tracked objects:
  6337 ;;		On entry : 0/0
  6338 ;;		On exit  : 0/0
  6339 ;;		Unchanged: 0/0
  6340 ;; Data sizes:     COMRAM   BANK0   BANK1   BANK2
  6341 ;;      Params:         0       0       0       0
  6342 ;;      Locals:         0       0       0       0
  6343 ;;      Temps:         18       0       0       0
  6344 ;;      Totals:        18       0       0       0
  6345 ;;Total ram usage:       18 bytes
  6346 ;; Hardware stack levels used:    1
  6347 ;; Hardware stack levels required when called:    3
  6348 ;; This function calls:
  6349 ;;		_CANisRxReady
  6350 ;;		_CANreceiveMessage
  6351 ;;		___lwdiv
  6352 ;;		i1_CANsendMessage
  6353 ;;		i1___wmul
  6354 ;; This function is called by:
  6355 ;;		Interrupt level 1
  6356 ;; This function uses a non-reentrant model
  6357 ;;
  6358                           
  6359                           	psect	intcodelo
  6360  000018                     __pintcodelo:
  6361                           	opt stack 0
  6362  000018                     _ISR_bassa:
  6363                           	opt stack 24
  6364                           
  6365                           ;incstack = 0
  6366  000018  8046               	bsf	btemp,0,c	;set compiler interrupt flag (level 1)
  6367  00001A  CFD8 F012          	movff	status,??_ISR_bassa+1
  6368  00001E  CFE8 F013          	movff	wreg,??_ISR_bassa+2
  6369  000022  CFE0 F014          	movff	bsr,??_ISR_bassa+3
  6370  000026  CFFA F015          	movff	pclath,??_ISR_bassa+4
  6371  00002A  CFFB F016          	movff	pclatu,??_ISR_bassa+5
  6372  00002E  CFE9 F017          	movff	fsr0l,??_ISR_bassa+6
  6373  000032  CFEA F018          	movff	fsr0h,??_ISR_bassa+7
  6374  000036  CFE1 F019          	movff	fsr1l,??_ISR_bassa+8
  6375  00003A  CFE2 F01A          	movff	fsr1h,??_ISR_bassa+9
  6376  00003E  CFD9 F01B          	movff	fsr2l,??_ISR_bassa+10
  6377  000042  CFDA F01C          	movff	fsr2h,??_ISR_bassa+11
  6378  000046  CFF3 F01D          	movff	prodl,??_ISR_bassa+12
  6379  00004A  CFF4 F01E          	movff	prodh,??_ISR_bassa+13
  6380  00004E  CFF6 F01F          	movff	tblptrl,??_ISR_bassa+14
  6381  000052  CFF7 F020          	movff	tblptrh,??_ISR_bassa+15
  6382  000056  CFF8 F021          	movff	tblptru,??_ISR_bassa+16
  6383  00005A  CFF5 F022          	movff	tablat,??_ISR_bassa+17
  6384                           
  6385                           ;sterzo.c: 86: if (CANisRxReady()) {
  6386  00005E  EC3C  F015         	call	_CANisRxReady	;wreg free
  6387  000062  0900               	iorlw	0
  6388  000064  B4D8               	btfsc	status,2,c
  6389  000066  D069               	goto	i1l597
  6390                           
  6391                           ;sterzo.c: 87: CANreceiveMessage(&msg);
  6392  000068  0E2C               	movlw	low _msg
  6393  00006A  6E01               	movwf	CANreceiveMessage@msg,c
  6394  00006C  0E00               	movlw	high _msg
  6395  00006E  6E02               	movwf	CANreceiveMessage@msg+1,c
  6396  000070  EC54  F00D         	call	_CANreceiveMessage	;wreg free
  6397                           
  6398                           ;sterzo.c: 88: if (msg.identifier == 0b00000000000000000000000000101) {
  6399  000074  0E05               	movlw	5
  6400  000076  182C               	xorwf	_msg,w,c
  6401  000078  102D               	iorwf	_msg+1,w,c
  6402  00007A  102E               	iorwf	_msg+2,w,c
  6403  00007C  102F               	iorwf	_msg+3,w,c
  6404  00007E  A4D8               	btfss	status,2,c
  6405  000080  D026               	goto	i1l3867
  6406                           
  6407                           ;sterzo.c: 89: id = msg.identifier;
  6408  000082  C02C  F023         	movff	_msg,_id
  6409  000086  C02D  F024         	movff	_msg+1,_id+1
  6410  00008A  C02E  F025         	movff	_msg+2,_id+2
  6411  00008E  C02F  F026         	movff	_msg+3,_id+3
  6412                           
  6413                           ;sterzo.c: 90: remote_frame = msg.RTR;
  6414  000092  A03A               	btfss	_msg+14,0,c
  6415  000094  D002               	goto	i1u466_20
  6416  000096  8243               	bsf	_remote_frame/(0+8),_remote_frame& (0+7),c
  6417  000098  D001               	goto	i1u467_25
  6418  00009A                     i1u466_20:
  6419  00009A  9243               	bcf	_remote_frame/(0+8),_remote_frame& (0+7),c
  6420  00009C                     i1u467_25:
  6421                           
  6422                           ;sterzo.c: 91: theorySteering = msg.data[0];
  6423  00009C  C030  F02B         	movff	_msg+4,_theorySteering
  6424                           
  6425                           ;sterzo.c: 95: currentSteering = (limiteDx * theorySteering) / 180;
  6426  0000A0  C02B  F001         	movff	_theorySteering,i1___wmul@multiplier
  6427  0000A4  6A02               	clrf	i1___wmul@multiplier+1,c
  6428  0000A6  C044  F003         	movff	_limiteDx,i1___wmul@multiplicand
  6429  0000AA  C045  F004         	movff	_limiteDx+1,i1___wmul@multiplicand+1
  6430  0000AE  EC0C  F015         	call	i1___wmul	;wreg free
  6431  0000B2  C001  F007         	movff	?i1___wmul,___lwdiv@dividend
  6432  0000B6  C002  F008         	movff	?i1___wmul+1,___lwdiv@dividend+1
  6433  0000BA  0E00               	movlw	0
  6434  0000BC  6E0A               	movwf	___lwdiv@divisor+1,c
  6435  0000BE  0EB4               	movlw	180
  6436  0000C0  6E09               	movwf	___lwdiv@divisor,c
  6437  0000C2  EC8C  F014         	call	___lwdiv	;wreg free
  6438  0000C6  5007               	movf	?___lwdiv,w,c
  6439  0000C8  0100               	movlb	0	; () banked
  6440  0000CA  6FAB               	movwf	_currentSteering& (0+255),b
  6441                           
  6442                           ; BSR set to: 0
  6443                           ;sterzo.c: 96: noChange = 1;
  6444  0000CC  8043               	bsf	_noChange/(0+8),_noChange& (0+7),c
  6445  0000CE                     i1l3867:
  6446                           
  6447                           ;sterzo.c: 97: }
  6448                           ;sterzo.c: 98: if ((msg.identifier == 0b00000000000000000000000000010)&&(msg.RTR == 1)) 
      +                          {
  6449  0000CE  0E02               	movlw	2
  6450  0000D0  182C               	xorwf	_msg,w,c
  6451  0000D2  102D               	iorwf	_msg+1,w,c
  6452  0000D4  102E               	iorwf	_msg+2,w,c
  6453  0000D6  102F               	iorwf	_msg+3,w,c
  6454  0000D8  A4D8               	btfss	status,2,c
  6455  0000DA  D02D               	goto	i1l3881
  6456  0000DC  043A               	decf	_msg+14,w,c
  6457  0000DE  A4D8               	btfss	status,2,c
  6458  0000E0  D02A               	goto	i1l3881
  6459                           
  6460                           ;sterzo.c: 99: PORTCbits.RC1 = ~PORTCbits.RC1;
  6461  0000E2  A282               	btfss	3970,1,c	;volatile
  6462  0000E4  D002               	goto	i1u470_20
  6463  0000E6  0E01               	movlw	1
  6464  0000E8  D001               	goto	i1u470_26
  6465  0000EA                     i1u470_20:
  6466  0000EA  0E00               	movlw	0
  6467  0000EC                     i1u470_26:
  6468  0000EC  0AFF               	xorlw	255
  6469  0000EE  6E11               	movwf	??_ISR_bassa& (0+255),c
  6470  0000F0  4611               	rlncf	??_ISR_bassa,f,c
  6471  0000F2  5082               	movf	3970,w,c	;volatile
  6472  0000F4  1811               	xorwf	??_ISR_bassa,w,c
  6473  0000F6  0BFD               	andlw	-3
  6474  0000F8  1811               	xorwf	??_ISR_bassa,w,c
  6475  0000FA  6E82               	movwf	3970,c	;volatile
  6476                           
  6477                           ;sterzo.c: 100: id = msg.identifier;
  6478  0000FC  C02C  F023         	movff	_msg,_id
  6479  000100  C02D  F024         	movff	_msg+1,_id+1
  6480  000104  C02E  F025         	movff	_msg+2,_id+2
  6481  000108  C02F  F026         	movff	_msg+3,_id+3
  6482                           
  6483                           ;sterzo.c: 101: remote_frame = 1;
  6484  00010C  8243               	bsf	_remote_frame/(0+8),_remote_frame& (0+7),c
  6485                           
  6486                           ;sterzo.c: 102: data_array [0] = 0x02;
  6487  00010E  0E02               	movlw	2
  6488  000110  6E3B               	movwf	_data_array,c
  6489                           
  6490                           ;sterzo.c: 103: CANsendMessage(id, data_array, 8, CAN_CONFIG_STD_MSG & CAN_NORMAL_TX_FRA
      +                          ME & CAN_TX_PRIORITY_0);
  6491  000112  C023  F001         	movff	_id,i1CANsendMessage@identifier
  6492  000116  C024  F002         	movff	_id+1,i1CANsendMessage@identifier+1
  6493  00011A  C025  F003         	movff	_id+2,i1CANsendMessage@identifier+2
  6494  00011E  C026  F004         	movff	_id+3,i1CANsendMessage@identifier+3
  6495  000122  0E3B               	movlw	low _data_array
  6496  000124  6E05               	movwf	i1CANsendMessage@data,c
  6497  000126  0E00               	movlw	high _data_array
  6498  000128  6E06               	movwf	i1CANsendMessage@data+1,c
  6499  00012A  0E08               	movlw	8
  6500  00012C  6E07               	movwf	i1CANsendMessage@dataLength,c
  6501  00012E  0EBC               	movlw	188
  6502  000130  6E08               	movwf	i1CANsendMessage@flags,c
  6503  000132  EC0C  F00A         	call	i1_CANsendMessage	;wreg free
  6504  000136                     i1l3881:
  6505                           
  6506                           ;sterzo.c: 104: }
  6507                           ;sterzo.c: 105: PIR3bits.RXB0IF = 0;
  6508  000136  90A4               	bcf	4004,0,c	;volatile
  6509                           
  6510                           ;sterzo.c: 106: PIR3bits.RXB1IF = 0;
  6511  000138  92A4               	bcf	4004,1,c	;volatile
  6512  00013A                     i1l597:
  6513  00013A  C022  FFF5         	movff	??_ISR_bassa+17,tablat
  6514  00013E  C021  FFF8         	movff	??_ISR_bassa+16,tblptru
  6515  000142  C020  FFF7         	movff	??_ISR_bassa+15,tblptrh
  6516  000146  C01F  FFF6         	movff	??_ISR_bassa+14,tblptrl
  6517  00014A  C01E  FFF4         	movff	??_ISR_bassa+13,prodh
  6518  00014E  C01D  FFF3         	movff	??_ISR_bassa+12,prodl
  6519  000152  C01C  FFDA         	movff	??_ISR_bassa+11,fsr2h
  6520  000156  C01B  FFD9         	movff	??_ISR_bassa+10,fsr2l
  6521  00015A  C01A  FFE2         	movff	??_ISR_bassa+9,fsr1h
  6522  00015E  C019  FFE1         	movff	??_ISR_bassa+8,fsr1l
  6523  000162  C018  FFEA         	movff	??_ISR_bassa+7,fsr0h
  6524  000166  C017  FFE9         	movff	??_ISR_bassa+6,fsr0l
  6525  00016A  C016  FFFB         	movff	??_ISR_bassa+5,pclatu
  6526  00016E  C015  FFFA         	movff	??_ISR_bassa+4,pclath
  6527  000172  C014  FFE0         	movff	??_ISR_bassa+3,bsr
  6528  000176  C013  FFE8         	movff	??_ISR_bassa+2,wreg
  6529  00017A  C012  FFD8         	movff	??_ISR_bassa+1,status
  6530  00017E  9046               	bcf	btemp,0,c	;clear compiler interrupt flag (level 1)
  6531  000180  0010               	retfie	
  6532  000182                     __end_of_ISR_bassa:
  6533                           	opt stack 0
  6534                           pclatu	equ	0xFFB
  6535                           pclath	equ	0xFFA
  6536                           tblptru	equ	0xFF8
  6537                           tblptrh	equ	0xFF7
  6538                           tblptrl	equ	0xFF6
  6539                           tablat	equ	0xFF5
  6540                           prodh	equ	0xFF4
  6541                           prodl	equ	0xFF3
  6542                           intcon	equ	0xFF2
  6543                           intcon2	equ	0xFF1
  6544                           postinc0	equ	0xFEE
  6545                           fsr0h	equ	0xFEA
  6546                           fsr0l	equ	0xFE9
  6547                           wreg	equ	0xFE8
  6548                           fsr1h	equ	0xFE2
  6549                           fsr1l	equ	0xFE1
  6550                           bsr	equ	0xFE0
  6551                           indf2	equ	0xFDF
  6552                           fsr2h	equ	0xFDA
  6553                           fsr2l	equ	0xFD9
  6554                           status	equ	0xFD8
  6555                           
  6556 ;; *************** function i1___wmul *****************
  6557 ;; Defined at:
  6558 ;;		line 15 in file "P:\Programmi\Microchip\xc8\v1.35\sources\common\Umul16.c"
  6559 ;; Parameters:    Size  Location     Type
  6560 ;;  multiplier      2    0[COMRAM] unsigned int 
  6561 ;;  multiplicand    2    2[COMRAM] unsigned int 
  6562 ;; Auto vars:     Size  Location     Type
  6563 ;;  __wmul          2    4[COMRAM] unsigned int 
  6564 ;; Return value:  Size  Location     Type
  6565 ;;                  2    0[COMRAM] unsigned int 
  6566 ;; Registers used:
  6567 ;;		wreg, status,2, status,0, prodl, prodh
  6568 ;; Tracked objects:
  6569 ;;		On entry : 0/0
  6570 ;;		On exit  : 0/0
  6571 ;;		Unchanged: 0/0
  6572 ;; Data sizes:     COMRAM   BANK0   BANK1   BANK2
  6573 ;;      Params:         4       0       0       0
  6574 ;;      Locals:         2       0       0       0
  6575 ;;      Temps:          0       0       0       0
  6576 ;;      Totals:         6       0       0       0
  6577 ;;Total ram usage:        6 bytes
  6578 ;; Hardware stack levels used:    1
  6579 ;; Hardware stack levels required when called:    2
  6580 ;; This function calls:
  6581 ;;		Nothing
  6582 ;; This function is called by:
  6583 ;;		_ISR_bassa
  6584 ;; This function uses a non-reentrant model
  6585 ;;
  6586                           
  6587                           	psect	text16
  6588  002A18                     __ptext16:
  6589                           	opt stack 0
  6590  002A18                     i1___wmul:
  6591                           	opt stack 24
  6592                           
  6593                           ;incstack = 0
  6594  002A18  5001               	movf	i1___wmul@multiplier,w,c
  6595  002A1A  0203               	mulwf	i1___wmul@multiplicand,c
  6596  002A1C  CFF3 F005          	movff	prodl,i1___wmul@product
  6597  002A20  CFF4 F006          	movff	prodh,i1___wmul@product+1
  6598  002A24  5001               	movf	i1___wmul@multiplier,w,c
  6599  002A26  0204               	mulwf	i1___wmul@multiplicand+1,c
  6600  002A28  50F3               	movf	prodl,w,c
  6601  002A2A  2606               	addwf	i1___wmul@product+1,f,c
  6602  002A2C  5002               	movf	i1___wmul@multiplier+1,w,c
  6603  002A2E  0203               	mulwf	i1___wmul@multiplicand,c
  6604  002A30  50F3               	movf	prodl,w,c
  6605  002A32  2606               	addwf	i1___wmul@product+1,f,c
  6606  002A34  C005  F001         	movff	i1___wmul@product,?i1___wmul
  6607  002A38  C006  F002         	movff	i1___wmul@product+1,?i1___wmul+1
  6608  002A3C  0012               	return	
  6609  002A3E                     __end_ofi1___wmul:
  6610                           	opt stack 0
  6611                           pclatu	equ	0xFFB
  6612                           pclath	equ	0xFFA
  6613                           tblptru	equ	0xFF8
  6614                           tblptrh	equ	0xFF7
  6615                           tblptrl	equ	0xFF6
  6616                           tablat	equ	0xFF5
  6617                           prodh	equ	0xFF4
  6618                           prodl	equ	0xFF3
  6619                           intcon	equ	0xFF2
  6620                           intcon2	equ	0xFF1
  6621                           postinc0	equ	0xFEE
  6622                           fsr0h	equ	0xFEA
  6623                           fsr0l	equ	0xFE9
  6624                           wreg	equ	0xFE8
  6625                           fsr1h	equ	0xFE2
  6626                           fsr1l	equ	0xFE1
  6627                           bsr	equ	0xFE0
  6628                           indf2	equ	0xFDF
  6629                           fsr2h	equ	0xFDA
  6630                           fsr2l	equ	0xFD9
  6631                           status	equ	0xFD8
  6632                           
  6633 ;; *************** function i1_CANsendMessage *****************
  6634 ;; Defined at:
  6635 ;;		line 294 in file "../../Scuola/Triennio/Tesina/can\CANlib.h"
  6636 ;; Parameters:    Size  Location     Type
  6637 ;;  identifier      4    0[COMRAM] unsigned long 
  6638 ;;  data            2    4[COMRAM] PTR unsigned char 
  6639 ;;		 -> data_array(8), 
  6640 ;;  dataLength      1    6[COMRAM] unsigned char 
  6641 ;;  flags           1    7[COMRAM] enum E16866
  6642 ;; Auto vars:     Size  Location     Type
  6643 ;;  CANsendMessa    4   12[COMRAM] unsigned long 
  6644 ;; Return value:  Size  Location     Type
  6645 ;;		None               void
  6646 ;; Registers used:
  6647 ;;		wreg, fsr2l, fsr2h, status,2, status,0
  6648 ;; Tracked objects:
  6649 ;;		On entry : 0/0
  6650 ;;		On exit  : 0/0
  6651 ;;		Unchanged: 0/0
  6652 ;; Data sizes:     COMRAM   BANK0   BANK1   BANK2
  6653 ;;      Params:         8       0       0       0
  6654 ;;      Locals:         4       0       0       0
  6655 ;;      Temps:          4       0       0       0
  6656 ;;      Totals:        16       0       0       0
  6657 ;;Total ram usage:       16 bytes
  6658 ;; Hardware stack levels used:    1
  6659 ;; Hardware stack levels required when called:    2
  6660 ;; This function calls:
  6661 ;;		Nothing
  6662 ;; This function is called by:
  6663 ;;		_ISR_bassa
  6664 ;; This function uses a non-reentrant model
  6665 ;;
  6666                           
  6667                           	psect	text17
  6668  001418                     __ptext17:
  6669                           	opt stack 0
  6670  001418                     i1_CANsendMessage:
  6671                           	opt stack 24
  6672                           
  6673                           ;can\CANlib.h: 296: unsigned long tamp;
  6674                           ;can\CANlib.h: 298: if (TXB0CONbits.TXREQ == 0)
  6675                           
  6676                           ;incstack = 0
  6677  001418  010F               	movlb	15	; () banked
  6678  00141A  B740               	btfsc	64,3,b	;volatile
  6679  00141C  D115               	goto	i1l339
  6680                           
  6681                           ; BSR set to: 15
  6682                           ;can\CANlib.h: 299: { TXB0DLC = dataLength;
  6683  00141E  C007  FF45         	movff	i1CANsendMessage@dataLength,3909	;volatile
  6684                           
  6685                           ;can\CANlib.h: 300: if (0b01000000 & flags)
  6686  001422  AC08               	btfss	i1CANsendMessage@flags,6,c
  6687  001424  D003               	goto	i1l340
  6688                           
  6689                           ; BSR set to: 15
  6690                           ;can\CANlib.h: 301: TXB0DLCbits.TXRTR = 0x01;
  6691  001426  010F               	movlb	15	; () banked
  6692  001428  8D45               	bsf	69,6,b	;volatile
  6693  00142A  D002               	goto	i1l341
  6694  00142C                     i1l340:
  6695                           
  6696                           ; BSR set to: 15
  6697                           ;can\CANlib.h: 302: else
  6698                           ;can\CANlib.h: 303: TXB0DLCbits.TXRTR = 0x00;
  6699  00142C  010F               	movlb	15	; () banked
  6700  00142E  9D45               	bcf	69,6,b	;volatile
  6701  001430                     i1l341:
  6702                           
  6703                           ; BSR set to: 15
  6704                           ;can\CANlib.h: 305: if (CAN_TX_FRAME_MASK & flags)
  6705  001430  A608               	btfss	i1CANsendMessage@flags,3,c
  6706  001432  D066               	goto	i1l342
  6707                           
  6708                           ; BSR set to: 15
  6709                           ;can\CANlib.h: 306: {
  6710                           ;can\CANlib.h: 308: tamp = identifier & 0x000000FF;
  6711  001434  5001               	movf	i1CANsendMessage@identifier,w,c
  6712  001436  6E0D               	movwf	i1CANsendMessage@tamp,c
  6713  001438  6A0E               	clrf	i1CANsendMessage@tamp+1,c
  6714  00143A  6A0F               	clrf	i1CANsendMessage@tamp+2,c
  6715  00143C  6A10               	clrf	i1CANsendMessage@tamp+3,c
  6716                           
  6717                           ; BSR set to: 15
  6718                           ;can\CANlib.h: 309: TXB0EIDL = (unsigned char) tamp;
  6719  00143E  C00D  FF44         	movff	i1CANsendMessage@tamp,3908	;volatile
  6720                           
  6721                           ; BSR set to: 15
  6722                           ;can\CANlib.h: 311: tamp = identifier & 0x0000FF00;
  6723  001442  0E00               	movlw	0
  6724  001444  1401               	andwf	i1CANsendMessage@identifier,w,c
  6725  001446  6E0D               	movwf	i1CANsendMessage@tamp,c
  6726  001448  0EFF               	movlw	255
  6727  00144A  1402               	andwf	i1CANsendMessage@identifier+1,w,c
  6728  00144C  6E0E               	movwf	i1CANsendMessage@tamp+1,c
  6729  00144E  0E00               	movlw	0
  6730  001450  1403               	andwf	i1CANsendMessage@identifier+2,w,c
  6731  001452  6E0F               	movwf	i1CANsendMessage@tamp+2,c
  6732  001454  0E00               	movlw	0
  6733  001456  1404               	andwf	i1CANsendMessage@identifier+3,w,c
  6734  001458  6E10               	movwf	i1CANsendMessage@tamp+3,c
  6735                           
  6736                           ; BSR set to: 15
  6737                           ;can\CANlib.h: 312: tamp = tamp >> 8;
  6738  00145A  C00D  F009         	movff	i1CANsendMessage@tamp,??i1_CANsendMessage
  6739  00145E  C00E  F00A         	movff	i1CANsendMessage@tamp+1,??i1_CANsendMessage+1
  6740  001462  C00F  F00B         	movff	i1CANsendMessage@tamp+2,??i1_CANsendMessage+2
  6741  001466  C010  F00C         	movff	i1CANsendMessage@tamp+3,??i1_CANsendMessage+3
  6742  00146A  C00A  F009         	movff	??i1_CANsendMessage+1,??i1_CANsendMessage
  6743  00146E  C00B  F00A         	movff	??i1_CANsendMessage+2,??i1_CANsendMessage+1
  6744  001472  C00C  F00B         	movff	??i1_CANsendMessage+3,??i1_CANsendMessage+2
  6745  001476  6A0C               	clrf	??i1_CANsendMessage+3,c
  6746  001478  C009  F00D         	movff	??i1_CANsendMessage,i1CANsendMessage@tamp
  6747  00147C  C00A  F00E         	movff	??i1_CANsendMessage+1,i1CANsendMessage@tamp+1
  6748  001480  C00B  F00F         	movff	??i1_CANsendMessage+2,i1CANsendMessage@tamp+2
  6749  001484  C00C  F010         	movff	??i1_CANsendMessage+3,i1CANsendMessage@tamp+3
  6750                           
  6751                           ; BSR set to: 15
  6752                           ;can\CANlib.h: 313: TXB0EIDH = (unsigned char) tamp;
  6753  001488  C00D  FF43         	movff	i1CANsendMessage@tamp,3907	;volatile
  6754                           
  6755                           ; BSR set to: 15
  6756                           ;can\CANlib.h: 315: TXB0SIDL = 0x00;
  6757  00148C  0E00               	movlw	0
  6758  00148E  010F               	movlb	15	; () banked
  6759  001490  6F42               	movwf	66,b	;volatile
  6760                           
  6761                           ; BSR set to: 15
  6762                           ;can\CANlib.h: 316: TXB0SIDLbits.EXIDE = 0x01;
  6763  001492  010F               	movlb	15	; () banked
  6764  001494  8742               	bsf	66,3,b	;volatile
  6765                           
  6766                           ; BSR set to: 15
  6767                           ;can\CANlib.h: 318: if (identifier & 0x00010000)
  6768  001496  A003               	btfss	i1CANsendMessage@identifier+2,0,c
  6769  001498  D002               	goto	i1l343
  6770                           
  6771                           ; BSR set to: 15
  6772                           ;can\CANlib.h: 319: TXB0SIDLbits.EID16 = 0x01;
  6773  00149A  010F               	movlb	15	; () banked
  6774  00149C  8142               	bsf	66,0,b	;volatile
  6775  00149E                     i1l343:
  6776                           
  6777                           ; BSR set to: 15
  6778                           ;can\CANlib.h: 320: if (identifier & 0x00020000)
  6779  00149E  A203               	btfss	i1CANsendMessage@identifier+2,1,c
  6780  0014A0  D002               	goto	i1l344
  6781                           
  6782                           ; BSR set to: 15
  6783                           ;can\CANlib.h: 321: TXB0SIDLbits.EID17 = 0x01;
  6784  0014A2  010F               	movlb	15	; () banked
  6785  0014A4  8342               	bsf	66,1,b	;volatile
  6786  0014A6                     i1l344:
  6787                           
  6788                           ; BSR set to: 15
  6789                           ;can\CANlib.h: 322: if (identifier & 0x00040000)
  6790  0014A6  A403               	btfss	i1CANsendMessage@identifier+2,2,c
  6791  0014A8  D002               	goto	i1l345
  6792                           
  6793                           ; BSR set to: 15
  6794                           ;can\CANlib.h: 323: TXB0SIDLbits.SID0 = 0x01;
  6795  0014AA  010F               	movlb	15	; () banked
  6796  0014AC  8B42               	bsf	66,5,b	;volatile
  6797  0014AE                     i1l345:
  6798                           
  6799                           ; BSR set to: 15
  6800                           ;can\CANlib.h: 324: if (identifier & 0x00080000)
  6801  0014AE  A603               	btfss	i1CANsendMessage@identifier+2,3,c
  6802  0014B0  D002               	goto	i1l346
  6803                           
  6804                           ; BSR set to: 15
  6805                           ;can\CANlib.h: 325: TXB0SIDLbits.SID1 = 0x01;
  6806  0014B2  010F               	movlb	15	; () banked
  6807  0014B4  8D42               	bsf	66,6,b	;volatile
  6808  0014B6                     i1l346:
  6809                           
  6810                           ; BSR set to: 15
  6811                           ;can\CANlib.h: 326: if (identifier & 0x00100000)
  6812  0014B6  A803               	btfss	i1CANsendMessage@identifier+2,4,c
  6813  0014B8  D002               	goto	i1l3621
  6814                           
  6815                           ; BSR set to: 15
  6816                           ;can\CANlib.h: 327: TXB0SIDLbits.SID2 = 0x01;
  6817  0014BA  010F               	movlb	15	; () banked
  6818  0014BC  8F42               	bsf	66,7,b	;volatile
  6819  0014BE                     i1l3621:
  6820                           
  6821                           ; BSR set to: 15
  6822                           ;can\CANlib.h: 329: tamp = (identifier >> 21);
  6823  0014BE  C001  F009         	movff	i1CANsendMessage@identifier,??i1_CANsendMessage
  6824  0014C2  C002  F00A         	movff	i1CANsendMessage@identifier+1,??i1_CANsendMessage+1
  6825  0014C6  C003  F00B         	movff	i1CANsendMessage@identifier+2,??i1_CANsendMessage+2
  6826  0014CA  C004  F00C         	movff	i1CANsendMessage@identifier+3,??i1_CANsendMessage+3
  6827  0014CE  0E16               	movlw	22
  6828  0014D0  D005               	goto	i1u428_20
  6829  0014D2                     i1u428_25:
  6830  0014D2  90D8               	bcf	status,0,c
  6831  0014D4  320C               	rrcf	??i1_CANsendMessage+3,f,c
  6832  0014D6  320B               	rrcf	??i1_CANsendMessage+2,f,c
  6833  0014D8  320A               	rrcf	??i1_CANsendMessage+1,f,c
  6834  0014DA  3209               	rrcf	??i1_CANsendMessage,f,c
  6835  0014DC                     i1u428_20:
  6836  0014DC  2EE8               	decfsz	wreg,f,c
  6837  0014DE  D7F9               	goto	i1u428_25
  6838  0014E0  C009  F00D         	movff	??i1_CANsendMessage,i1CANsendMessage@tamp
  6839  0014E4  C00A  F00E         	movff	??i1_CANsendMessage+1,i1CANsendMessage@tamp+1
  6840  0014E8  C00B  F00F         	movff	??i1_CANsendMessage+2,i1CANsendMessage@tamp+2
  6841  0014EC  C00C  F010         	movff	??i1_CANsendMessage+3,i1CANsendMessage@tamp+3
  6842                           
  6843                           ; BSR set to: 15
  6844                           ;can\CANlib.h: 330: tamp = tamp & 0x000000FF;
  6845  0014F0  500D               	movf	i1CANsendMessage@tamp,w,c
  6846  0014F2  6E0D               	movwf	i1CANsendMessage@tamp,c
  6847  0014F4  6A0E               	clrf	i1CANsendMessage@tamp+1,c
  6848  0014F6  6A0F               	clrf	i1CANsendMessage@tamp+2,c
  6849  0014F8  6A10               	clrf	i1CANsendMessage@tamp+3,c
  6850                           
  6851                           ; BSR set to: 15
  6852                           ;can\CANlib.h: 331: TXB0SIDH = (unsigned char) tamp;
  6853  0014FA  C00D  FF41         	movff	i1CANsendMessage@tamp,3905	;volatile
  6854                           
  6855                           ;can\CANlib.h: 332: }
  6856  0014FE  D04D               	goto	i1l3641
  6857  001500                     i1l342:
  6858                           
  6859                           ; BSR set to: 15
  6860                           ;can\CANlib.h: 334: else
  6861                           ;can\CANlib.h: 336: {
  6862                           ;can\CANlib.h: 337: TXB0SIDLbits.EXIDE = 0x00;
  6863  001500  010F               	movlb	15	; () banked
  6864  001502  9742               	bcf	66,3,b	;volatile
  6865                           
  6866                           ; BSR set to: 15
  6867                           ;can\CANlib.h: 339: tamp = (identifier >> 3);
  6868  001504  C001  F009         	movff	i1CANsendMessage@identifier,??i1_CANsendMessage
  6869  001508  C002  F00A         	movff	i1CANsendMessage@identifier+1,??i1_CANsendMessage+1
  6870  00150C  C003  F00B         	movff	i1CANsendMessage@identifier+2,??i1_CANsendMessage+2
  6871  001510  C004  F00C         	movff	i1CANsendMessage@identifier+3,??i1_CANsendMessage+3
  6872  001514  0E04               	movlw	4
  6873  001516  D005               	goto	i1u429_20
  6874  001518                     i1u429_25:
  6875  001518  90D8               	bcf	status,0,c
  6876  00151A  320C               	rrcf	??i1_CANsendMessage+3,f,c
  6877  00151C  320B               	rrcf	??i1_CANsendMessage+2,f,c
  6878  00151E  320A               	rrcf	??i1_CANsendMessage+1,f,c
  6879  001520  3209               	rrcf	??i1_CANsendMessage,f,c
  6880  001522                     i1u429_20:
  6881  001522  2EE8               	decfsz	wreg,f,c
  6882  001524  D7F9               	goto	i1u429_25
  6883  001526  C009  F00D         	movff	??i1_CANsendMessage,i1CANsendMessage@tamp
  6884  00152A  C00A  F00E         	movff	??i1_CANsendMessage+1,i1CANsendMessage@tamp+1
  6885  00152E  C00B  F00F         	movff	??i1_CANsendMessage+2,i1CANsendMessage@tamp+2
  6886  001532  C00C  F010         	movff	??i1_CANsendMessage+3,i1CANsendMessage@tamp+3
  6887                           
  6888                           ; BSR set to: 15
  6889                           ;can\CANlib.h: 340: tamp = tamp & 0x000000FF;
  6890  001536  500D               	movf	i1CANsendMessage@tamp,w,c
  6891  001538  6E0D               	movwf	i1CANsendMessage@tamp,c
  6892  00153A  6A0E               	clrf	i1CANsendMessage@tamp+1,c
  6893  00153C  6A0F               	clrf	i1CANsendMessage@tamp+2,c
  6894  00153E  6A10               	clrf	i1CANsendMessage@tamp+3,c
  6895                           
  6896                           ; BSR set to: 15
  6897                           ;can\CANlib.h: 341: TXB0SIDH = (unsigned char) tamp;
  6898  001540  C00D  FF41         	movff	i1CANsendMessage@tamp,3905	;volatile
  6899                           
  6900                           ; BSR set to: 15
  6901                           ;can\CANlib.h: 343: tamp = identifier & 0x00000007;
  6902  001544  0E07               	movlw	7
  6903  001546  1401               	andwf	i1CANsendMessage@identifier,w,c
  6904  001548  6E0D               	movwf	i1CANsendMessage@tamp,c
  6905  00154A  0E00               	movlw	0
  6906  00154C  1402               	andwf	i1CANsendMessage@identifier+1,w,c
  6907  00154E  6E0E               	movwf	i1CANsendMessage@tamp+1,c
  6908  001550  0E00               	movlw	0
  6909  001552  1403               	andwf	i1CANsendMessage@identifier+2,w,c
  6910  001554  6E0F               	movwf	i1CANsendMessage@tamp+2,c
  6911  001556  0E00               	movlw	0
  6912  001558  1404               	andwf	i1CANsendMessage@identifier+3,w,c
  6913  00155A  6E10               	movwf	i1CANsendMessage@tamp+3,c
  6914                           
  6915                           ; BSR set to: 15
  6916                           ;can\CANlib.h: 344: tamp = tamp << 5;
  6917  00155C  C00D  F009         	movff	i1CANsendMessage@tamp,??i1_CANsendMessage
  6918  001560  C00E  F00A         	movff	i1CANsendMessage@tamp+1,??i1_CANsendMessage+1
  6919  001564  C00F  F00B         	movff	i1CANsendMessage@tamp+2,??i1_CANsendMessage+2
  6920  001568  C010  F00C         	movff	i1CANsendMessage@tamp+3,??i1_CANsendMessage+3
  6921  00156C  0E05               	movlw	5
  6922  00156E                     i1u430_25:
  6923  00156E  90D8               	bcf	status,0,c
  6924  001570  3609               	rlcf	??i1_CANsendMessage,f,c
  6925  001572  360A               	rlcf	??i1_CANsendMessage+1,f,c
  6926  001574  360B               	rlcf	??i1_CANsendMessage+2,f,c
  6927  001576  360C               	rlcf	??i1_CANsendMessage+3,f,c
  6928  001578  2EE8               	decfsz	wreg,f,c
  6929  00157A  D7F9               	goto	i1u430_25
  6930  00157C  C009  F00D         	movff	??i1_CANsendMessage,i1CANsendMessage@tamp
  6931  001580  C00A  F00E         	movff	??i1_CANsendMessage+1,i1CANsendMessage@tamp+1
  6932  001584  C00B  F00F         	movff	??i1_CANsendMessage+2,i1CANsendMessage@tamp+2
  6933  001588  C00C  F010         	movff	??i1_CANsendMessage+3,i1CANsendMessage@tamp+3
  6934                           
  6935                           ; BSR set to: 15
  6936                           ;can\CANlib.h: 345: TXB0SIDL = TXB0SIDL & 0b00011111;
  6937  00158C  010F               	movlb	15	; () banked
  6938  00158E  5142               	movf	66,w,b	;volatile
  6939  001590  0B1F               	andlw	31
  6940  001592  010F               	movlb	15	; () banked
  6941  001594  6F42               	movwf	66,b	;volatile
  6942                           
  6943                           ; BSR set to: 15
  6944                           ;can\CANlib.h: 346: TXB0SIDL = (unsigned char) tamp;
  6945  001596  C00D  FF42         	movff	i1CANsendMessage@tamp,3906	;volatile
  6946  00159A                     i1l3641:
  6947                           
  6948                           ; BSR set to: 15
  6949                           ;can\CANlib.h: 347: }
  6950                           ;can\CANlib.h: 349: if (0b00000001 & flags)
  6951  00159A  A008               	btfss	i1CANsendMessage@flags,0,c
  6952  00159C  D003               	goto	i1l349
  6953                           
  6954                           ; BSR set to: 15
  6955                           ;can\CANlib.h: 350: TXB0CONbits.TXPRI0 = 0x01;
  6956  00159E  010F               	movlb	15	; () banked
  6957  0015A0  8140               	bsf	64,0,b	;volatile
  6958  0015A2  D002               	goto	i1l350
  6959  0015A4                     i1l349:
  6960                           
  6961                           ; BSR set to: 15
  6962                           ;can\CANlib.h: 351: else
  6963                           ;can\CANlib.h: 352: TXB0CONbits.TXPRI0 = 0x00;
  6964  0015A4  010F               	movlb	15	; () banked
  6965  0015A6  9140               	bcf	64,0,b	;volatile
  6966  0015A8                     i1l350:
  6967                           
  6968                           ; BSR set to: 15
  6969                           ;can\CANlib.h: 353: if (0b00000010 & flags)
  6970  0015A8  A208               	btfss	i1CANsendMessage@flags,1,c
  6971  0015AA  D003               	goto	i1l351
  6972                           
  6973                           ; BSR set to: 15
  6974                           ;can\CANlib.h: 354: TXB0CONbits.TXPRI1 = 0x01;
  6975  0015AC  010F               	movlb	15	; () banked
  6976  0015AE  8340               	bsf	64,1,b	;volatile
  6977  0015B0  D002               	goto	i1l3647
  6978  0015B2                     i1l351:
  6979                           
  6980                           ; BSR set to: 15
  6981                           ;can\CANlib.h: 355: else
  6982                           ;can\CANlib.h: 356: TXB0CONbits.TXPRI1 = 0x00;
  6983  0015B2  010F               	movlb	15	; () banked
  6984  0015B4  9340               	bcf	64,1,b	;volatile
  6985  0015B6                     i1l3647:
  6986                           
  6987                           ; BSR set to: 15
  6988                           ;can\CANlib.h: 358: TXB0D0 = data[0];
  6989  0015B6  C005  FFD9         	movff	i1CANsendMessage@data,fsr2l
  6990  0015BA  C006  FFDA         	movff	i1CANsendMessage@data+1,fsr2h
  6991  0015BE  50DF               	movf	indf2,w,c
  6992  0015C0  010F               	movlb	15	; () banked
  6993  0015C2  6F46               	movwf	70,b	;volatile
  6994                           
  6995                           ; BSR set to: 15
  6996                           ;can\CANlib.h: 359: TXB0D1 = data[1];
  6997  0015C4  EE20 F001          	lfsr	2,1
  6998  0015C8  5005               	movf	i1CANsendMessage@data,w,c
  6999  0015CA  26D9               	addwf	fsr2l,f,c
  7000  0015CC  5006               	movf	i1CANsendMessage@data+1,w,c
  7001  0015CE  22DA               	addwfc	fsr2h,f,c
  7002  0015D0  50DF               	movf	indf2,w,c
  7003  0015D2  010F               	movlb	15	; () banked
  7004  0015D4  6F47               	movwf	71,b	;volatile
  7005                           
  7006                           ; BSR set to: 15
  7007                           ;can\CANlib.h: 360: TXB0D2 = data[2];
  7008  0015D6  EE20 F002          	lfsr	2,2
  7009  0015DA  5005               	movf	i1CANsendMessage@data,w,c
  7010  0015DC  26D9               	addwf	fsr2l,f,c
  7011  0015DE  5006               	movf	i1CANsendMessage@data+1,w,c
  7012  0015E0  22DA               	addwfc	fsr2h,f,c
  7013  0015E2  50DF               	movf	indf2,w,c
  7014  0015E4  010F               	movlb	15	; () banked
  7015  0015E6  6F48               	movwf	72,b	;volatile
  7016                           
  7017                           ; BSR set to: 15
  7018                           ;can\CANlib.h: 361: TXB0D3 = data[3];
  7019  0015E8  EE20 F003          	lfsr	2,3
  7020  0015EC  5005               	movf	i1CANsendMessage@data,w,c
  7021  0015EE  26D9               	addwf	fsr2l,f,c
  7022  0015F0  5006               	movf	i1CANsendMessage@data+1,w,c
  7023  0015F2  22DA               	addwfc	fsr2h,f,c
  7024  0015F4  50DF               	movf	indf2,w,c
  7025  0015F6  010F               	movlb	15	; () banked
  7026  0015F8  6F49               	movwf	73,b	;volatile
  7027                           
  7028                           ; BSR set to: 15
  7029                           ;can\CANlib.h: 362: TXB0D4 = data[4];
  7030  0015FA  EE20 F004          	lfsr	2,4
  7031  0015FE  5005               	movf	i1CANsendMessage@data,w,c
  7032  001600  26D9               	addwf	fsr2l,f,c
  7033  001602  5006               	movf	i1CANsendMessage@data+1,w,c
  7034  001604  22DA               	addwfc	fsr2h,f,c
  7035  001606  50DF               	movf	indf2,w,c
  7036  001608  010F               	movlb	15	; () banked
  7037  00160A  6F4A               	movwf	74,b	;volatile
  7038                           
  7039                           ; BSR set to: 15
  7040                           ;can\CANlib.h: 363: TXB0D5 = data[5];
  7041  00160C  EE20 F005          	lfsr	2,5
  7042  001610  5005               	movf	i1CANsendMessage@data,w,c
  7043  001612  26D9               	addwf	fsr2l,f,c
  7044  001614  5006               	movf	i1CANsendMessage@data+1,w,c
  7045  001616  22DA               	addwfc	fsr2h,f,c
  7046  001618  50DF               	movf	indf2,w,c
  7047  00161A  010F               	movlb	15	; () banked
  7048  00161C  6F4B               	movwf	75,b	;volatile
  7049                           
  7050                           ; BSR set to: 15
  7051                           ;can\CANlib.h: 364: TXB0D6 = data[6];
  7052  00161E  EE20 F006          	lfsr	2,6
  7053  001622  5005               	movf	i1CANsendMessage@data,w,c
  7054  001624  26D9               	addwf	fsr2l,f,c
  7055  001626  5006               	movf	i1CANsendMessage@data+1,w,c
  7056  001628  22DA               	addwfc	fsr2h,f,c
  7057  00162A  50DF               	movf	indf2,w,c
  7058  00162C  010F               	movlb	15	; () banked
  7059  00162E  6F4C               	movwf	76,b	;volatile
  7060                           
  7061                           ; BSR set to: 15
  7062                           ;can\CANlib.h: 365: TXB0D7 = data[7];
  7063  001630  EE20 F007          	lfsr	2,7
  7064  001634  5005               	movf	i1CANsendMessage@data,w,c
  7065  001636  26D9               	addwf	fsr2l,f,c
  7066  001638  5006               	movf	i1CANsendMessage@data+1,w,c
  7067  00163A  22DA               	addwfc	fsr2h,f,c
  7068  00163C  50DF               	movf	indf2,w,c
  7069  00163E  010F               	movlb	15	; () banked
  7070  001640  6F4D               	movwf	77,b	;volatile
  7071                           
  7072                           ; BSR set to: 15
  7073                           ;can\CANlib.h: 367: TXB0CONbits.TXREQ = 0x01;
  7074  001642  010F               	movlb	15	; () banked
  7075  001644  8740               	bsf	64,3,b	;volatile
  7076                           
  7077                           ; BSR set to: 15
  7078                           ;can\CANlib.h: 368: return;
  7079  001646  0012               	return	
  7080  001648                     i1l339:
  7081                           
  7082                           ; BSR set to: 15
  7083                           ;can\CANlib.h: 369: }
  7084                           ;can\CANlib.h: 373: if (TXB1CONbits.TXREQ == 0)
  7085  001648  010F               	movlb	15	; () banked
  7086  00164A  B730               	btfsc	48,3,b	;volatile
  7087  00164C  D115               	goto	i1l354
  7088                           
  7089                           ; BSR set to: 15
  7090                           ;can\CANlib.h: 374: { TXB1DLC = dataLength;
  7091  00164E  C007  FF35         	movff	i1CANsendMessage@dataLength,3893	;volatile
  7092                           
  7093                           ;can\CANlib.h: 376: if (0b01000000 & flags)
  7094  001652  AC08               	btfss	i1CANsendMessage@flags,6,c
  7095  001654  D003               	goto	i1l355
  7096                           
  7097                           ; BSR set to: 15
  7098                           ;can\CANlib.h: 377: TXB1DLCbits.TXRTR = 0x01;
  7099  001656  010F               	movlb	15	; () banked
  7100  001658  8D35               	bsf	53,6,b	;volatile
  7101  00165A  D002               	goto	i1l356
  7102  00165C                     i1l355:
  7103                           
  7104                           ; BSR set to: 15
  7105                           ;can\CANlib.h: 378: else
  7106                           ;can\CANlib.h: 379: TXB1DLCbits.TXRTR = 0x00;
  7107  00165C  010F               	movlb	15	; () banked
  7108  00165E  9D35               	bcf	53,6,b	;volatile
  7109  001660                     i1l356:
  7110                           
  7111                           ; BSR set to: 15
  7112                           ;can\CANlib.h: 381: if (CAN_TX_FRAME_MASK & flags)
  7113  001660  A608               	btfss	i1CANsendMessage@flags,3,c
  7114  001662  D066               	goto	i1l357
  7115                           
  7116                           ; BSR set to: 15
  7117                           ;can\CANlib.h: 382: {
  7118                           ;can\CANlib.h: 383: tamp = identifier & 0x000000FF;
  7119  001664  5001               	movf	i1CANsendMessage@identifier,w,c
  7120  001666  6E0D               	movwf	i1CANsendMessage@tamp,c
  7121  001668  6A0E               	clrf	i1CANsendMessage@tamp+1,c
  7122  00166A  6A0F               	clrf	i1CANsendMessage@tamp+2,c
  7123  00166C  6A10               	clrf	i1CANsendMessage@tamp+3,c
  7124                           
  7125                           ; BSR set to: 15
  7126                           ;can\CANlib.h: 384: TXB1EIDL = (unsigned char) tamp;
  7127  00166E  C00D  FF34         	movff	i1CANsendMessage@tamp,3892	;volatile
  7128                           
  7129                           ; BSR set to: 15
  7130                           ;can\CANlib.h: 386: tamp = identifier & 0x0000FF00;
  7131  001672  0E00               	movlw	0
  7132  001674  1401               	andwf	i1CANsendMessage@identifier,w,c
  7133  001676  6E0D               	movwf	i1CANsendMessage@tamp,c
  7134  001678  0EFF               	movlw	255
  7135  00167A  1402               	andwf	i1CANsendMessage@identifier+1,w,c
  7136  00167C  6E0E               	movwf	i1CANsendMessage@tamp+1,c
  7137  00167E  0E00               	movlw	0
  7138  001680  1403               	andwf	i1CANsendMessage@identifier+2,w,c
  7139  001682  6E0F               	movwf	i1CANsendMessage@tamp+2,c
  7140  001684  0E00               	movlw	0
  7141  001686  1404               	andwf	i1CANsendMessage@identifier+3,w,c
  7142  001688  6E10               	movwf	i1CANsendMessage@tamp+3,c
  7143                           
  7144                           ; BSR set to: 15
  7145                           ;can\CANlib.h: 387: tamp = tamp >> 8;
  7146  00168A  C00D  F009         	movff	i1CANsendMessage@tamp,??i1_CANsendMessage
  7147  00168E  C00E  F00A         	movff	i1CANsendMessage@tamp+1,??i1_CANsendMessage+1
  7148  001692  C00F  F00B         	movff	i1CANsendMessage@tamp+2,??i1_CANsendMessage+2
  7149  001696  C010  F00C         	movff	i1CANsendMessage@tamp+3,??i1_CANsendMessage+3
  7150  00169A  C00A  F009         	movff	??i1_CANsendMessage+1,??i1_CANsendMessage
  7151  00169E  C00B  F00A         	movff	??i1_CANsendMessage+2,??i1_CANsendMessage+1
  7152  0016A2  C00C  F00B         	movff	??i1_CANsendMessage+3,??i1_CANsendMessage+2
  7153  0016A6  6A0C               	clrf	??i1_CANsendMessage+3,c
  7154  0016A8  C009  F00D         	movff	??i1_CANsendMessage,i1CANsendMessage@tamp
  7155  0016AC  C00A  F00E         	movff	??i1_CANsendMessage+1,i1CANsendMessage@tamp+1
  7156  0016B0  C00B  F00F         	movff	??i1_CANsendMessage+2,i1CANsendMessage@tamp+2
  7157  0016B4  C00C  F010         	movff	??i1_CANsendMessage+3,i1CANsendMessage@tamp+3
  7158                           
  7159                           ; BSR set to: 15
  7160                           ;can\CANlib.h: 388: TXB1EIDH = (unsigned char) tamp;
  7161  0016B8  C00D  FF33         	movff	i1CANsendMessage@tamp,3891	;volatile
  7162                           
  7163                           ; BSR set to: 15
  7164                           ;can\CANlib.h: 390: TXB1SIDL = 0x00;
  7165  0016BC  0E00               	movlw	0
  7166  0016BE  010F               	movlb	15	; () banked
  7167  0016C0  6F32               	movwf	50,b	;volatile
  7168                           
  7169                           ; BSR set to: 15
  7170                           ;can\CANlib.h: 391: TXB1SIDLbits.EXIDE = 0x01;
  7171  0016C2  010F               	movlb	15	; () banked
  7172  0016C4  8732               	bsf	50,3,b	;volatile
  7173                           
  7174                           ; BSR set to: 15
  7175                           ;can\CANlib.h: 393: if (identifier & 0x00010000)
  7176  0016C6  A003               	btfss	i1CANsendMessage@identifier+2,0,c
  7177  0016C8  D002               	goto	i1l358
  7178                           
  7179                           ; BSR set to: 15
  7180                           ;can\CANlib.h: 394: TXB1SIDLbits.EID16 = 0x01;
  7181  0016CA  010F               	movlb	15	; () banked
  7182  0016CC  8132               	bsf	50,0,b	;volatile
  7183  0016CE                     i1l358:
  7184                           
  7185                           ; BSR set to: 15
  7186                           ;can\CANlib.h: 395: if (identifier & 0x00020000)
  7187  0016CE  A203               	btfss	i1CANsendMessage@identifier+2,1,c
  7188  0016D0  D002               	goto	i1l359
  7189                           
  7190                           ; BSR set to: 15
  7191                           ;can\CANlib.h: 396: TXB1SIDLbits.EID17 = 0x01;
  7192  0016D2  010F               	movlb	15	; () banked
  7193  0016D4  8332               	bsf	50,1,b	;volatile
  7194  0016D6                     i1l359:
  7195                           
  7196                           ; BSR set to: 15
  7197                           ;can\CANlib.h: 397: if (identifier & 0x00040000)
  7198  0016D6  A403               	btfss	i1CANsendMessage@identifier+2,2,c
  7199  0016D8  D002               	goto	i1l360
  7200                           
  7201                           ; BSR set to: 15
  7202                           ;can\CANlib.h: 398: TXB1SIDLbits.SID0 = 0x01;
  7203  0016DA  010F               	movlb	15	; () banked
  7204  0016DC  8B32               	bsf	50,5,b	;volatile
  7205  0016DE                     i1l360:
  7206                           
  7207                           ; BSR set to: 15
  7208                           ;can\CANlib.h: 399: if (identifier & 0x00080000)
  7209  0016DE  A603               	btfss	i1CANsendMessage@identifier+2,3,c
  7210  0016E0  D002               	goto	i1l361
  7211                           
  7212                           ; BSR set to: 15
  7213                           ;can\CANlib.h: 400: TXB1SIDLbits.SID1 = 0x01;
  7214  0016E2  010F               	movlb	15	; () banked
  7215  0016E4  8D32               	bsf	50,6,b	;volatile
  7216  0016E6                     i1l361:
  7217                           
  7218                           ; BSR set to: 15
  7219                           ;can\CANlib.h: 401: if (identifier & 0x00100000)
  7220  0016E6  A803               	btfss	i1CANsendMessage@identifier+2,4,c
  7221  0016E8  D002               	goto	i1l3697
  7222                           
  7223                           ; BSR set to: 15
  7224                           ;can\CANlib.h: 402: TXB1SIDLbits.SID2 = 0x01;
  7225  0016EA  010F               	movlb	15	; () banked
  7226  0016EC  8F32               	bsf	50,7,b	;volatile
  7227  0016EE                     i1l3697:
  7228                           
  7229                           ; BSR set to: 15
  7230                           ;can\CANlib.h: 404: tamp = (identifier >> 21);
  7231  0016EE  C001  F009         	movff	i1CANsendMessage@identifier,??i1_CANsendMessage
  7232  0016F2  C002  F00A         	movff	i1CANsendMessage@identifier+1,??i1_CANsendMessage+1
  7233  0016F6  C003  F00B         	movff	i1CANsendMessage@identifier+2,??i1_CANsendMessage+2
  7234  0016FA  C004  F00C         	movff	i1CANsendMessage@identifier+3,??i1_CANsendMessage+3
  7235  0016FE  0E16               	movlw	22
  7236  001700  D005               	goto	i1u441_20
  7237  001702                     i1u441_25:
  7238  001702  90D8               	bcf	status,0,c
  7239  001704  320C               	rrcf	??i1_CANsendMessage+3,f,c
  7240  001706  320B               	rrcf	??i1_CANsendMessage+2,f,c
  7241  001708  320A               	rrcf	??i1_CANsendMessage+1,f,c
  7242  00170A  3209               	rrcf	??i1_CANsendMessage,f,c
  7243  00170C                     i1u441_20:
  7244  00170C  2EE8               	decfsz	wreg,f,c
  7245  00170E  D7F9               	goto	i1u441_25
  7246  001710  C009  F00D         	movff	??i1_CANsendMessage,i1CANsendMessage@tamp
  7247  001714  C00A  F00E         	movff	??i1_CANsendMessage+1,i1CANsendMessage@tamp+1
  7248  001718  C00B  F00F         	movff	??i1_CANsendMessage+2,i1CANsendMessage@tamp+2
  7249  00171C  C00C  F010         	movff	??i1_CANsendMessage+3,i1CANsendMessage@tamp+3
  7250                           
  7251                           ; BSR set to: 15
  7252                           ;can\CANlib.h: 405: tamp = tamp & 0x000000FF;
  7253  001720  500D               	movf	i1CANsendMessage@tamp,w,c
  7254  001722  6E0D               	movwf	i1CANsendMessage@tamp,c
  7255  001724  6A0E               	clrf	i1CANsendMessage@tamp+1,c
  7256  001726  6A0F               	clrf	i1CANsendMessage@tamp+2,c
  7257  001728  6A10               	clrf	i1CANsendMessage@tamp+3,c
  7258                           
  7259                           ; BSR set to: 15
  7260                           ;can\CANlib.h: 406: TXB1SIDH = (unsigned char) tamp;
  7261  00172A  C00D  FF31         	movff	i1CANsendMessage@tamp,3889	;volatile
  7262                           
  7263                           ;can\CANlib.h: 407: }
  7264  00172E  D04D               	goto	i1l3717
  7265  001730                     i1l357:
  7266                           
  7267                           ; BSR set to: 15
  7268                           ;can\CANlib.h: 409: else
  7269                           ;can\CANlib.h: 411: {
  7270                           ;can\CANlib.h: 412: TXB1SIDLbits.EXIDE = 0x00;
  7271  001730  010F               	movlb	15	; () banked
  7272  001732  9732               	bcf	50,3,b	;volatile
  7273                           
  7274                           ; BSR set to: 15
  7275                           ;can\CANlib.h: 414: tamp = (identifier >> 3);
  7276  001734  C001  F009         	movff	i1CANsendMessage@identifier,??i1_CANsendMessage
  7277  001738  C002  F00A         	movff	i1CANsendMessage@identifier+1,??i1_CANsendMessage+1
  7278  00173C  C003  F00B         	movff	i1CANsendMessage@identifier+2,??i1_CANsendMessage+2
  7279  001740  C004  F00C         	movff	i1CANsendMessage@identifier+3,??i1_CANsendMessage+3
  7280  001744  0E04               	movlw	4
  7281  001746  D005               	goto	i1u442_20
  7282  001748                     i1u442_25:
  7283  001748  90D8               	bcf	status,0,c
  7284  00174A  320C               	rrcf	??i1_CANsendMessage+3,f,c
  7285  00174C  320B               	rrcf	??i1_CANsendMessage+2,f,c
  7286  00174E  320A               	rrcf	??i1_CANsendMessage+1,f,c
  7287  001750  3209               	rrcf	??i1_CANsendMessage,f,c
  7288  001752                     i1u442_20:
  7289  001752  2EE8               	decfsz	wreg,f,c
  7290  001754  D7F9               	goto	i1u442_25
  7291  001756  C009  F00D         	movff	??i1_CANsendMessage,i1CANsendMessage@tamp
  7292  00175A  C00A  F00E         	movff	??i1_CANsendMessage+1,i1CANsendMessage@tamp+1
  7293  00175E  C00B  F00F         	movff	??i1_CANsendMessage+2,i1CANsendMessage@tamp+2
  7294  001762  C00C  F010         	movff	??i1_CANsendMessage+3,i1CANsendMessage@tamp+3
  7295                           
  7296                           ; BSR set to: 15
  7297                           ;can\CANlib.h: 415: tamp = tamp & 0x000000FF;
  7298  001766  500D               	movf	i1CANsendMessage@tamp,w,c
  7299  001768  6E0D               	movwf	i1CANsendMessage@tamp,c
  7300  00176A  6A0E               	clrf	i1CANsendMessage@tamp+1,c
  7301  00176C  6A0F               	clrf	i1CANsendMessage@tamp+2,c
  7302  00176E  6A10               	clrf	i1CANsendMessage@tamp+3,c
  7303                           
  7304                           ; BSR set to: 15
  7305                           ;can\CANlib.h: 416: TXB1SIDH = (unsigned char) tamp;
  7306  001770  C00D  FF31         	movff	i1CANsendMessage@tamp,3889	;volatile
  7307                           
  7308                           ; BSR set to: 15
  7309                           ;can\CANlib.h: 418: tamp = identifier & 0x00000007;
  7310  001774  0E07               	movlw	7
  7311  001776  1401               	andwf	i1CANsendMessage@identifier,w,c
  7312  001778  6E0D               	movwf	i1CANsendMessage@tamp,c
  7313  00177A  0E00               	movlw	0
  7314  00177C  1402               	andwf	i1CANsendMessage@identifier+1,w,c
  7315  00177E  6E0E               	movwf	i1CANsendMessage@tamp+1,c
  7316  001780  0E00               	movlw	0
  7317  001782  1403               	andwf	i1CANsendMessage@identifier+2,w,c
  7318  001784  6E0F               	movwf	i1CANsendMessage@tamp+2,c
  7319  001786  0E00               	movlw	0
  7320  001788  1404               	andwf	i1CANsendMessage@identifier+3,w,c
  7321  00178A  6E10               	movwf	i1CANsendMessage@tamp+3,c
  7322                           
  7323                           ; BSR set to: 15
  7324                           ;can\CANlib.h: 419: tamp = tamp << 5;
  7325  00178C  C00D  F009         	movff	i1CANsendMessage@tamp,??i1_CANsendMessage
  7326  001790  C00E  F00A         	movff	i1CANsendMessage@tamp+1,??i1_CANsendMessage+1
  7327  001794  C00F  F00B         	movff	i1CANsendMessage@tamp+2,??i1_CANsendMessage+2
  7328  001798  C010  F00C         	movff	i1CANsendMessage@tamp+3,??i1_CANsendMessage+3
  7329  00179C  0E05               	movlw	5
  7330  00179E                     i1u443_25:
  7331  00179E  90D8               	bcf	status,0,c
  7332  0017A0  3609               	rlcf	??i1_CANsendMessage,f,c
  7333  0017A2  360A               	rlcf	??i1_CANsendMessage+1,f,c
  7334  0017A4  360B               	rlcf	??i1_CANsendMessage+2,f,c
  7335  0017A6  360C               	rlcf	??i1_CANsendMessage+3,f,c
  7336  0017A8  2EE8               	decfsz	wreg,f,c
  7337  0017AA  D7F9               	goto	i1u443_25
  7338  0017AC  C009  F00D         	movff	??i1_CANsendMessage,i1CANsendMessage@tamp
  7339  0017B0  C00A  F00E         	movff	??i1_CANsendMessage+1,i1CANsendMessage@tamp+1
  7340  0017B4  C00B  F00F         	movff	??i1_CANsendMessage+2,i1CANsendMessage@tamp+2
  7341  0017B8  C00C  F010         	movff	??i1_CANsendMessage+3,i1CANsendMessage@tamp+3
  7342                           
  7343                           ; BSR set to: 15
  7344                           ;can\CANlib.h: 420: TXB1SIDL = TXB1SIDL & 0b00011111;
  7345  0017BC  010F               	movlb	15	; () banked
  7346  0017BE  5132               	movf	50,w,b	;volatile
  7347  0017C0  0B1F               	andlw	31
  7348  0017C2  010F               	movlb	15	; () banked
  7349  0017C4  6F32               	movwf	50,b	;volatile
  7350                           
  7351                           ; BSR set to: 15
  7352                           ;can\CANlib.h: 421: TXB1SIDL = (unsigned char) tamp;
  7353  0017C6  C00D  FF32         	movff	i1CANsendMessage@tamp,3890	;volatile
  7354  0017CA                     i1l3717:
  7355                           
  7356                           ; BSR set to: 15
  7357                           ;can\CANlib.h: 422: }
  7358                           ;can\CANlib.h: 424: if (0b00000001 & flags)
  7359  0017CA  A008               	btfss	i1CANsendMessage@flags,0,c
  7360  0017CC  D003               	goto	i1l364
  7361                           
  7362                           ; BSR set to: 15
  7363                           ;can\CANlib.h: 425: TXB1CONbits.TXPRI0 = 0x01;
  7364  0017CE  010F               	movlb	15	; () banked
  7365  0017D0  8130               	bsf	48,0,b	;volatile
  7366  0017D2  D002               	goto	i1l365
  7367  0017D4                     i1l364:
  7368                           
  7369                           ; BSR set to: 15
  7370                           ;can\CANlib.h: 426: else
  7371                           ;can\CANlib.h: 427: TXB1CONbits.TXPRI0 = 0x00;
  7372  0017D4  010F               	movlb	15	; () banked
  7373  0017D6  9130               	bcf	48,0,b	;volatile
  7374  0017D8                     i1l365:
  7375                           
  7376                           ; BSR set to: 15
  7377                           ;can\CANlib.h: 428: if (0b00000010 & flags)
  7378  0017D8  A208               	btfss	i1CANsendMessage@flags,1,c
  7379  0017DA  D003               	goto	i1l366
  7380                           
  7381                           ; BSR set to: 15
  7382                           ;can\CANlib.h: 429: TXB1CONbits.TXPRI1 = 0x01;
  7383  0017DC  010F               	movlb	15	; () banked
  7384  0017DE  8330               	bsf	48,1,b	;volatile
  7385  0017E0  D002               	goto	i1l3723
  7386  0017E2                     i1l366:
  7387                           
  7388                           ; BSR set to: 15
  7389                           ;can\CANlib.h: 430: else
  7390                           ;can\CANlib.h: 431: TXB1CONbits.TXPRI1 = 0x00;
  7391  0017E2  010F               	movlb	15	; () banked
  7392  0017E4  9330               	bcf	48,1,b	;volatile
  7393  0017E6                     i1l3723:
  7394                           
  7395                           ; BSR set to: 15
  7396                           ;can\CANlib.h: 433: TXB1D0 = data[0];
  7397  0017E6  C005  FFD9         	movff	i1CANsendMessage@data,fsr2l
  7398  0017EA  C006  FFDA         	movff	i1CANsendMessage@data+1,fsr2h
  7399  0017EE  50DF               	movf	indf2,w,c
  7400  0017F0  010F               	movlb	15	; () banked
  7401  0017F2  6F36               	movwf	54,b	;volatile
  7402                           
  7403                           ; BSR set to: 15
  7404                           ;can\CANlib.h: 434: TXB1D1 = data[1];
  7405  0017F4  EE20 F001          	lfsr	2,1
  7406  0017F8  5005               	movf	i1CANsendMessage@data,w,c
  7407  0017FA  26D9               	addwf	fsr2l,f,c
  7408  0017FC  5006               	movf	i1CANsendMessage@data+1,w,c
  7409  0017FE  22DA               	addwfc	fsr2h,f,c
  7410  001800  50DF               	movf	indf2,w,c
  7411  001802  010F               	movlb	15	; () banked
  7412  001804  6F37               	movwf	55,b	;volatile
  7413                           
  7414                           ; BSR set to: 15
  7415                           ;can\CANlib.h: 435: TXB1D2 = data[2];
  7416  001806  EE20 F002          	lfsr	2,2
  7417  00180A  5005               	movf	i1CANsendMessage@data,w,c
  7418  00180C  26D9               	addwf	fsr2l,f,c
  7419  00180E  5006               	movf	i1CANsendMessage@data+1,w,c
  7420  001810  22DA               	addwfc	fsr2h,f,c
  7421  001812  50DF               	movf	indf2,w,c
  7422  001814  010F               	movlb	15	; () banked
  7423  001816  6F38               	movwf	56,b	;volatile
  7424                           
  7425                           ; BSR set to: 15
  7426                           ;can\CANlib.h: 436: TXB1D3 = data[3];
  7427  001818  EE20 F003          	lfsr	2,3
  7428  00181C  5005               	movf	i1CANsendMessage@data,w,c
  7429  00181E  26D9               	addwf	fsr2l,f,c
  7430  001820  5006               	movf	i1CANsendMessage@data+1,w,c
  7431  001822  22DA               	addwfc	fsr2h,f,c
  7432  001824  50DF               	movf	indf2,w,c
  7433  001826  010F               	movlb	15	; () banked
  7434  001828  6F39               	movwf	57,b	;volatile
  7435                           
  7436                           ; BSR set to: 15
  7437                           ;can\CANlib.h: 437: TXB1D4 = data[4];
  7438  00182A  EE20 F004          	lfsr	2,4
  7439  00182E  5005               	movf	i1CANsendMessage@data,w,c
  7440  001830  26D9               	addwf	fsr2l,f,c
  7441  001832  5006               	movf	i1CANsendMessage@data+1,w,c
  7442  001834  22DA               	addwfc	fsr2h,f,c
  7443  001836  50DF               	movf	indf2,w,c
  7444  001838  010F               	movlb	15	; () banked
  7445  00183A  6F3A               	movwf	58,b	;volatile
  7446                           
  7447                           ; BSR set to: 15
  7448                           ;can\CANlib.h: 438: TXB1D5 = data[5];
  7449  00183C  EE20 F005          	lfsr	2,5
  7450  001840  5005               	movf	i1CANsendMessage@data,w,c
  7451  001842  26D9               	addwf	fsr2l,f,c
  7452  001844  5006               	movf	i1CANsendMessage@data+1,w,c
  7453  001846  22DA               	addwfc	fsr2h,f,c
  7454  001848  50DF               	movf	indf2,w,c
  7455  00184A  010F               	movlb	15	; () banked
  7456  00184C  6F3B               	movwf	59,b	;volatile
  7457                           
  7458                           ; BSR set to: 15
  7459                           ;can\CANlib.h: 439: TXB1D6 = data[6];
  7460  00184E  EE20 F006          	lfsr	2,6
  7461  001852  5005               	movf	i1CANsendMessage@data,w,c
  7462  001854  26D9               	addwf	fsr2l,f,c
  7463  001856  5006               	movf	i1CANsendMessage@data+1,w,c
  7464  001858  22DA               	addwfc	fsr2h,f,c
  7465  00185A  50DF               	movf	indf2,w,c
  7466  00185C  010F               	movlb	15	; () banked
  7467  00185E  6F3C               	movwf	60,b	;volatile
  7468                           
  7469                           ; BSR set to: 15
  7470                           ;can\CANlib.h: 440: TXB1D7 = data[7];
  7471  001860  EE20 F007          	lfsr	2,7
  7472  001864  5005               	movf	i1CANsendMessage@data,w,c
  7473  001866  26D9               	addwf	fsr2l,f,c
  7474  001868  5006               	movf	i1CANsendMessage@data+1,w,c
  7475  00186A  22DA               	addwfc	fsr2h,f,c
  7476  00186C  50DF               	movf	indf2,w,c
  7477  00186E  010F               	movlb	15	; () banked
  7478  001870  6F3D               	movwf	61,b	;volatile
  7479                           
  7480                           ; BSR set to: 15
  7481                           ;can\CANlib.h: 442: TXB1CONbits.TXREQ = 0x01;
  7482  001872  010F               	movlb	15	; () banked
  7483  001874  8730               	bsf	48,3,b	;volatile
  7484                           
  7485                           ; BSR set to: 15
  7486                           ;can\CANlib.h: 444: return;
  7487  001876  0012               	return	
  7488  001878                     i1l354:
  7489                           
  7490                           ; BSR set to: 15
  7491                           ;can\CANlib.h: 445: }
  7492                           ;can\CANlib.h: 449: if (TXB2CONbits.TXREQ == 0)
  7493  001878  010F               	movlb	15	; () banked
  7494  00187A  B720               	btfsc	32,3,b	;volatile
  7495  00187C  0012               	return	
  7496                           
  7497                           ; BSR set to: 15
  7498                           ;can\CANlib.h: 450: { TXB2DLC = dataLength;
  7499  00187E  C007  FF25         	movff	i1CANsendMessage@dataLength,3877	;volatile
  7500                           
  7501                           ;can\CANlib.h: 452: if (0b01000000 & flags)
  7502  001882  AC08               	btfss	i1CANsendMessage@flags,6,c
  7503  001884  D003               	goto	i1l369
  7504                           
  7505                           ; BSR set to: 15
  7506                           ;can\CANlib.h: 453: TXB2DLCbits.TXRTR = 0x01;
  7507  001886  010F               	movlb	15	; () banked
  7508  001888  8D25               	bsf	37,6,b	;volatile
  7509  00188A  D002               	goto	i1l370
  7510  00188C                     i1l369:
  7511                           
  7512                           ; BSR set to: 15
  7513                           ;can\CANlib.h: 454: else
  7514                           ;can\CANlib.h: 455: TXB2DLCbits.TXRTR = 0x00;
  7515  00188C  010F               	movlb	15	; () banked
  7516  00188E  9D25               	bcf	37,6,b	;volatile
  7517  001890                     i1l370:
  7518                           
  7519                           ; BSR set to: 15
  7520                           ;can\CANlib.h: 457: if (CAN_TX_FRAME_MASK & flags)
  7521  001890  A608               	btfss	i1CANsendMessage@flags,3,c
  7522  001892  D066               	goto	i1l371
  7523                           
  7524                           ; BSR set to: 15
  7525                           ;can\CANlib.h: 458: {
  7526                           ;can\CANlib.h: 459: tamp = identifier & 0x000000FF;
  7527  001894  5001               	movf	i1CANsendMessage@identifier,w,c
  7528  001896  6E0D               	movwf	i1CANsendMessage@tamp,c
  7529  001898  6A0E               	clrf	i1CANsendMessage@tamp+1,c
  7530  00189A  6A0F               	clrf	i1CANsendMessage@tamp+2,c
  7531  00189C  6A10               	clrf	i1CANsendMessage@tamp+3,c
  7532                           
  7533                           ; BSR set to: 15
  7534                           ;can\CANlib.h: 460: TXB2EIDL = (unsigned char) tamp;
  7535  00189E  C00D  FF24         	movff	i1CANsendMessage@tamp,3876	;volatile
  7536                           
  7537                           ; BSR set to: 15
  7538                           ;can\CANlib.h: 462: tamp = identifier & 0x0000FF00;
  7539  0018A2  0E00               	movlw	0
  7540  0018A4  1401               	andwf	i1CANsendMessage@identifier,w,c
  7541  0018A6  6E0D               	movwf	i1CANsendMessage@tamp,c
  7542  0018A8  0EFF               	movlw	255
  7543  0018AA  1402               	andwf	i1CANsendMessage@identifier+1,w,c
  7544  0018AC  6E0E               	movwf	i1CANsendMessage@tamp+1,c
  7545  0018AE  0E00               	movlw	0
  7546  0018B0  1403               	andwf	i1CANsendMessage@identifier+2,w,c
  7547  0018B2  6E0F               	movwf	i1CANsendMessage@tamp+2,c
  7548  0018B4  0E00               	movlw	0
  7549  0018B6  1404               	andwf	i1CANsendMessage@identifier+3,w,c
  7550  0018B8  6E10               	movwf	i1CANsendMessage@tamp+3,c
  7551                           
  7552                           ; BSR set to: 15
  7553                           ;can\CANlib.h: 463: tamp = tamp >> 8;
  7554  0018BA  C00D  F009         	movff	i1CANsendMessage@tamp,??i1_CANsendMessage
  7555  0018BE  C00E  F00A         	movff	i1CANsendMessage@tamp+1,??i1_CANsendMessage+1
  7556  0018C2  C00F  F00B         	movff	i1CANsendMessage@tamp+2,??i1_CANsendMessage+2
  7557  0018C6  C010  F00C         	movff	i1CANsendMessage@tamp+3,??i1_CANsendMessage+3
  7558  0018CA  C00A  F009         	movff	??i1_CANsendMessage+1,??i1_CANsendMessage
  7559  0018CE  C00B  F00A         	movff	??i1_CANsendMessage+2,??i1_CANsendMessage+1
  7560  0018D2  C00C  F00B         	movff	??i1_CANsendMessage+3,??i1_CANsendMessage+2
  7561  0018D6  6A0C               	clrf	??i1_CANsendMessage+3,c
  7562  0018D8  C009  F00D         	movff	??i1_CANsendMessage,i1CANsendMessage@tamp
  7563  0018DC  C00A  F00E         	movff	??i1_CANsendMessage+1,i1CANsendMessage@tamp+1
  7564  0018E0  C00B  F00F         	movff	??i1_CANsendMessage+2,i1CANsendMessage@tamp+2
  7565  0018E4  C00C  F010         	movff	??i1_CANsendMessage+3,i1CANsendMessage@tamp+3
  7566                           
  7567                           ; BSR set to: 15
  7568                           ;can\CANlib.h: 464: TXB2EIDH = (unsigned char) tamp;
  7569  0018E8  C00D  FF23         	movff	i1CANsendMessage@tamp,3875	;volatile
  7570                           
  7571                           ; BSR set to: 15
  7572                           ;can\CANlib.h: 466: TXB2SIDL = 0x00;
  7573  0018EC  0E00               	movlw	0
  7574  0018EE  010F               	movlb	15	; () banked
  7575  0018F0  6F22               	movwf	34,b	;volatile
  7576                           
  7577                           ; BSR set to: 15
  7578                           ;can\CANlib.h: 467: TXB2SIDLbits.EXIDE = 0x01;
  7579  0018F2  010F               	movlb	15	; () banked
  7580  0018F4  8722               	bsf	34,3,b	;volatile
  7581                           
  7582                           ; BSR set to: 15
  7583                           ;can\CANlib.h: 469: if (identifier & 0x00010000)
  7584  0018F6  A003               	btfss	i1CANsendMessage@identifier+2,0,c
  7585  0018F8  D002               	goto	i1l372
  7586                           
  7587                           ; BSR set to: 15
  7588                           ;can\CANlib.h: 470: TXB2SIDLbits.EID16 = 0x01;
  7589  0018FA  010F               	movlb	15	; () banked
  7590  0018FC  8122               	bsf	34,0,b	;volatile
  7591  0018FE                     i1l372:
  7592                           
  7593                           ; BSR set to: 15
  7594                           ;can\CANlib.h: 471: if (identifier & 0x00020000)
  7595  0018FE  A203               	btfss	i1CANsendMessage@identifier+2,1,c
  7596  001900  D002               	goto	i1l373
  7597                           
  7598                           ; BSR set to: 15
  7599                           ;can\CANlib.h: 472: TXB2SIDLbits.EID17 = 0x01;
  7600  001902  010F               	movlb	15	; () banked
  7601  001904  8322               	bsf	34,1,b	;volatile
  7602  001906                     i1l373:
  7603                           
  7604                           ; BSR set to: 15
  7605                           ;can\CANlib.h: 473: if (identifier & 0x00040000)
  7606  001906  A403               	btfss	i1CANsendMessage@identifier+2,2,c
  7607  001908  D002               	goto	i1l374
  7608                           
  7609                           ; BSR set to: 15
  7610                           ;can\CANlib.h: 474: TXB2SIDLbits.SID0 = 0x01;
  7611  00190A  010F               	movlb	15	; () banked
  7612  00190C  8B22               	bsf	34,5,b	;volatile
  7613  00190E                     i1l374:
  7614                           
  7615                           ; BSR set to: 15
  7616                           ;can\CANlib.h: 475: if (identifier & 0x00080000)
  7617  00190E  A603               	btfss	i1CANsendMessage@identifier+2,3,c
  7618  001910  D002               	goto	i1l375
  7619                           
  7620                           ; BSR set to: 15
  7621                           ;can\CANlib.h: 476: TXB2SIDLbits.SID1 = 0x01;
  7622  001912  010F               	movlb	15	; () banked
  7623  001914  8D22               	bsf	34,6,b	;volatile
  7624  001916                     i1l375:
  7625                           
  7626                           ; BSR set to: 15
  7627                           ;can\CANlib.h: 477: if (identifier & 0x00100000)
  7628  001916  A803               	btfss	i1CANsendMessage@identifier+2,4,c
  7629  001918  D002               	goto	i1l3773
  7630                           
  7631                           ; BSR set to: 15
  7632                           ;can\CANlib.h: 478: TXB2SIDLbits.SID2 = 0x01;
  7633  00191A  010F               	movlb	15	; () banked
  7634  00191C  8F22               	bsf	34,7,b	;volatile
  7635  00191E                     i1l3773:
  7636                           
  7637                           ; BSR set to: 15
  7638                           ;can\CANlib.h: 480: tamp = (identifier >> 21);
  7639  00191E  C001  F009         	movff	i1CANsendMessage@identifier,??i1_CANsendMessage
  7640  001922  C002  F00A         	movff	i1CANsendMessage@identifier+1,??i1_CANsendMessage+1
  7641  001926  C003  F00B         	movff	i1CANsendMessage@identifier+2,??i1_CANsendMessage+2
  7642  00192A  C004  F00C         	movff	i1CANsendMessage@identifier+3,??i1_CANsendMessage+3
  7643  00192E  0E16               	movlw	22
  7644  001930  D005               	goto	i1u454_20
  7645  001932                     i1u454_25:
  7646  001932  90D8               	bcf	status,0,c
  7647  001934  320C               	rrcf	??i1_CANsendMessage+3,f,c
  7648  001936  320B               	rrcf	??i1_CANsendMessage+2,f,c
  7649  001938  320A               	rrcf	??i1_CANsendMessage+1,f,c
  7650  00193A  3209               	rrcf	??i1_CANsendMessage,f,c
  7651  00193C                     i1u454_20:
  7652  00193C  2EE8               	decfsz	wreg,f,c
  7653  00193E  D7F9               	goto	i1u454_25
  7654  001940  C009  F00D         	movff	??i1_CANsendMessage,i1CANsendMessage@tamp
  7655  001944  C00A  F00E         	movff	??i1_CANsendMessage+1,i1CANsendMessage@tamp+1
  7656  001948  C00B  F00F         	movff	??i1_CANsendMessage+2,i1CANsendMessage@tamp+2
  7657  00194C  C00C  F010         	movff	??i1_CANsendMessage+3,i1CANsendMessage@tamp+3
  7658                           
  7659                           ; BSR set to: 15
  7660                           ;can\CANlib.h: 481: tamp = tamp & 0x000000FF;
  7661  001950  500D               	movf	i1CANsendMessage@tamp,w,c
  7662  001952  6E0D               	movwf	i1CANsendMessage@tamp,c
  7663  001954  6A0E               	clrf	i1CANsendMessage@tamp+1,c
  7664  001956  6A0F               	clrf	i1CANsendMessage@tamp+2,c
  7665  001958  6A10               	clrf	i1CANsendMessage@tamp+3,c
  7666                           
  7667                           ; BSR set to: 15
  7668                           ;can\CANlib.h: 482: TXB2SIDH = (unsigned char) tamp;
  7669  00195A  C00D  FF21         	movff	i1CANsendMessage@tamp,3873	;volatile
  7670                           
  7671                           ;can\CANlib.h: 483: }
  7672  00195E  D04D               	goto	i1l3793
  7673  001960                     i1l371:
  7674                           
  7675                           ; BSR set to: 15
  7676                           ;can\CANlib.h: 485: else
  7677                           ;can\CANlib.h: 487: {
  7678                           ;can\CANlib.h: 488: TXB2SIDLbits.EXIDE = 0x00;
  7679  001960  010F               	movlb	15	; () banked
  7680  001962  9722               	bcf	34,3,b	;volatile
  7681                           
  7682                           ; BSR set to: 15
  7683                           ;can\CANlib.h: 490: tamp = (identifier >> 3);
  7684  001964  C001  F009         	movff	i1CANsendMessage@identifier,??i1_CANsendMessage
  7685  001968  C002  F00A         	movff	i1CANsendMessage@identifier+1,??i1_CANsendMessage+1
  7686  00196C  C003  F00B         	movff	i1CANsendMessage@identifier+2,??i1_CANsendMessage+2
  7687  001970  C004  F00C         	movff	i1CANsendMessage@identifier+3,??i1_CANsendMessage+3
  7688  001974  0E04               	movlw	4
  7689  001976  D005               	goto	i1u455_20
  7690  001978                     i1u455_25:
  7691  001978  90D8               	bcf	status,0,c
  7692  00197A  320C               	rrcf	??i1_CANsendMessage+3,f,c
  7693  00197C  320B               	rrcf	??i1_CANsendMessage+2,f,c
  7694  00197E  320A               	rrcf	??i1_CANsendMessage+1,f,c
  7695  001980  3209               	rrcf	??i1_CANsendMessage,f,c
  7696  001982                     i1u455_20:
  7697  001982  2EE8               	decfsz	wreg,f,c
  7698  001984  D7F9               	goto	i1u455_25
  7699  001986  C009  F00D         	movff	??i1_CANsendMessage,i1CANsendMessage@tamp
  7700  00198A  C00A  F00E         	movff	??i1_CANsendMessage+1,i1CANsendMessage@tamp+1
  7701  00198E  C00B  F00F         	movff	??i1_CANsendMessage+2,i1CANsendMessage@tamp+2
  7702  001992  C00C  F010         	movff	??i1_CANsendMessage+3,i1CANsendMessage@tamp+3
  7703                           
  7704                           ; BSR set to: 15
  7705                           ;can\CANlib.h: 491: tamp = tamp & 0x000000FF;
  7706  001996  500D               	movf	i1CANsendMessage@tamp,w,c
  7707  001998  6E0D               	movwf	i1CANsendMessage@tamp,c
  7708  00199A  6A0E               	clrf	i1CANsendMessage@tamp+1,c
  7709  00199C  6A0F               	clrf	i1CANsendMessage@tamp+2,c
  7710  00199E  6A10               	clrf	i1CANsendMessage@tamp+3,c
  7711                           
  7712                           ; BSR set to: 15
  7713                           ;can\CANlib.h: 492: TXB2SIDH = (unsigned char) tamp;
  7714  0019A0  C00D  FF21         	movff	i1CANsendMessage@tamp,3873	;volatile
  7715                           
  7716                           ; BSR set to: 15
  7717                           ;can\CANlib.h: 494: tamp = identifier & 0x00000007;
  7718  0019A4  0E07               	movlw	7
  7719  0019A6  1401               	andwf	i1CANsendMessage@identifier,w,c
  7720  0019A8  6E0D               	movwf	i1CANsendMessage@tamp,c
  7721  0019AA  0E00               	movlw	0
  7722  0019AC  1402               	andwf	i1CANsendMessage@identifier+1,w,c
  7723  0019AE  6E0E               	movwf	i1CANsendMessage@tamp+1,c
  7724  0019B0  0E00               	movlw	0
  7725  0019B2  1403               	andwf	i1CANsendMessage@identifier+2,w,c
  7726  0019B4  6E0F               	movwf	i1CANsendMessage@tamp+2,c
  7727  0019B6  0E00               	movlw	0
  7728  0019B8  1404               	andwf	i1CANsendMessage@identifier+3,w,c
  7729  0019BA  6E10               	movwf	i1CANsendMessage@tamp+3,c
  7730                           
  7731                           ; BSR set to: 15
  7732                           ;can\CANlib.h: 495: tamp = tamp << 5;
  7733  0019BC  C00D  F009         	movff	i1CANsendMessage@tamp,??i1_CANsendMessage
  7734  0019C0  C00E  F00A         	movff	i1CANsendMessage@tamp+1,??i1_CANsendMessage+1
  7735  0019C4  C00F  F00B         	movff	i1CANsendMessage@tamp+2,??i1_CANsendMessage+2
  7736  0019C8  C010  F00C         	movff	i1CANsendMessage@tamp+3,??i1_CANsendMessage+3
  7737  0019CC  0E05               	movlw	5
  7738  0019CE                     i1u456_25:
  7739  0019CE  90D8               	bcf	status,0,c
  7740  0019D0  3609               	rlcf	??i1_CANsendMessage,f,c
  7741  0019D2  360A               	rlcf	??i1_CANsendMessage+1,f,c
  7742  0019D4  360B               	rlcf	??i1_CANsendMessage+2,f,c
  7743  0019D6  360C               	rlcf	??i1_CANsendMessage+3,f,c
  7744  0019D8  2EE8               	decfsz	wreg,f,c
  7745  0019DA  D7F9               	goto	i1u456_25
  7746  0019DC  C009  F00D         	movff	??i1_CANsendMessage,i1CANsendMessage@tamp
  7747  0019E0  C00A  F00E         	movff	??i1_CANsendMessage+1,i1CANsendMessage@tamp+1
  7748  0019E4  C00B  F00F         	movff	??i1_CANsendMessage+2,i1CANsendMessage@tamp+2
  7749  0019E8  C00C  F010         	movff	??i1_CANsendMessage+3,i1CANsendMessage@tamp+3
  7750                           
  7751                           ; BSR set to: 15
  7752                           ;can\CANlib.h: 496: TXB2SIDL = TXB2SIDL & 0b00011111;
  7753  0019EC  010F               	movlb	15	; () banked
  7754  0019EE  5122               	movf	34,w,b	;volatile
  7755  0019F0  0B1F               	andlw	31
  7756  0019F2  010F               	movlb	15	; () banked
  7757  0019F4  6F22               	movwf	34,b	;volatile
  7758                           
  7759                           ; BSR set to: 15
  7760                           ;can\CANlib.h: 497: TXB2SIDL = (unsigned char) tamp;
  7761  0019F6  C00D  FF22         	movff	i1CANsendMessage@tamp,3874	;volatile
  7762  0019FA                     i1l3793:
  7763                           
  7764                           ; BSR set to: 15
  7765                           ;can\CANlib.h: 498: }
  7766                           ;can\CANlib.h: 500: if (0b00000001 & flags)
  7767  0019FA  A008               	btfss	i1CANsendMessage@flags,0,c
  7768  0019FC  D003               	goto	i1l378
  7769                           
  7770                           ; BSR set to: 15
  7771                           ;can\CANlib.h: 501: TXB2CONbits.TXPRI0 = 0x01;
  7772  0019FE  010F               	movlb	15	; () banked
  7773  001A00  8120               	bsf	32,0,b	;volatile
  7774  001A02  D002               	goto	i1l379
  7775  001A04                     i1l378:
  7776                           
  7777                           ; BSR set to: 15
  7778                           ;can\CANlib.h: 502: else
  7779                           ;can\CANlib.h: 503: TXB2CONbits.TXPRI0 = 0x00;
  7780  001A04  010F               	movlb	15	; () banked
  7781  001A06  9120               	bcf	32,0,b	;volatile
  7782  001A08                     i1l379:
  7783                           
  7784                           ; BSR set to: 15
  7785                           ;can\CANlib.h: 504: if (0b00000010 & flags)
  7786  001A08  A208               	btfss	i1CANsendMessage@flags,1,c
  7787  001A0A  D003               	goto	i1l380
  7788                           
  7789                           ; BSR set to: 15
  7790                           ;can\CANlib.h: 505: TXB2CONbits.TXPRI1 = 0x01;
  7791  001A0C  010F               	movlb	15	; () banked
  7792  001A0E  8320               	bsf	32,1,b	;volatile
  7793  001A10  D002               	goto	i1l3799
  7794  001A12                     i1l380:
  7795                           
  7796                           ; BSR set to: 15
  7797                           ;can\CANlib.h: 506: else
  7798                           ;can\CANlib.h: 507: TXB2CONbits.TXPRI1 = 0x00;
  7799  001A12  010F               	movlb	15	; () banked
  7800  001A14  9320               	bcf	32,1,b	;volatile
  7801  001A16                     i1l3799:
  7802                           
  7803                           ; BSR set to: 15
  7804                           ;can\CANlib.h: 509: TXB2D0 = data[0];
  7805  001A16  C005  FFD9         	movff	i1CANsendMessage@data,fsr2l
  7806  001A1A  C006  FFDA         	movff	i1CANsendMessage@data+1,fsr2h
  7807  001A1E  50DF               	movf	indf2,w,c
  7808  001A20  010F               	movlb	15	; () banked
  7809  001A22  6F26               	movwf	38,b	;volatile
  7810                           
  7811                           ; BSR set to: 15
  7812                           ;can\CANlib.h: 510: TXB2D1 = data[1];
  7813  001A24  EE20 F001          	lfsr	2,1
  7814  001A28  5005               	movf	i1CANsendMessage@data,w,c
  7815  001A2A  26D9               	addwf	fsr2l,f,c
  7816  001A2C  5006               	movf	i1CANsendMessage@data+1,w,c
  7817  001A2E  22DA               	addwfc	fsr2h,f,c
  7818  001A30  50DF               	movf	indf2,w,c
  7819  001A32  010F               	movlb	15	; () banked
  7820  001A34  6F27               	movwf	39,b	;volatile
  7821                           
  7822                           ; BSR set to: 15
  7823                           ;can\CANlib.h: 511: TXB2D2 = data[2];
  7824  001A36  EE20 F002          	lfsr	2,2
  7825  001A3A  5005               	movf	i1CANsendMessage@data,w,c
  7826  001A3C  26D9               	addwf	fsr2l,f,c
  7827  001A3E  5006               	movf	i1CANsendMessage@data+1,w,c
  7828  001A40  22DA               	addwfc	fsr2h,f,c
  7829  001A42  50DF               	movf	indf2,w,c
  7830  001A44  010F               	movlb	15	; () banked
  7831  001A46  6F28               	movwf	40,b	;volatile
  7832                           
  7833                           ; BSR set to: 15
  7834                           ;can\CANlib.h: 512: TXB2D3 = data[3];
  7835  001A48  EE20 F003          	lfsr	2,3
  7836  001A4C  5005               	movf	i1CANsendMessage@data,w,c
  7837  001A4E  26D9               	addwf	fsr2l,f,c
  7838  001A50  5006               	movf	i1CANsendMessage@data+1,w,c
  7839  001A52  22DA               	addwfc	fsr2h,f,c
  7840  001A54  50DF               	movf	indf2,w,c
  7841  001A56  010F               	movlb	15	; () banked
  7842  001A58  6F29               	movwf	41,b	;volatile
  7843                           
  7844                           ; BSR set to: 15
  7845                           ;can\CANlib.h: 513: TXB2D4 = data[4];
  7846  001A5A  EE20 F004          	lfsr	2,4
  7847  001A5E  5005               	movf	i1CANsendMessage@data,w,c
  7848  001A60  26D9               	addwf	fsr2l,f,c
  7849  001A62  5006               	movf	i1CANsendMessage@data+1,w,c
  7850  001A64  22DA               	addwfc	fsr2h,f,c
  7851  001A66  50DF               	movf	indf2,w,c
  7852  001A68  010F               	movlb	15	; () banked
  7853  001A6A  6F2A               	movwf	42,b	;volatile
  7854                           
  7855                           ; BSR set to: 15
  7856                           ;can\CANlib.h: 514: TXB2D5 = data[5];
  7857  001A6C  EE20 F005          	lfsr	2,5
  7858  001A70  5005               	movf	i1CANsendMessage@data,w,c
  7859  001A72  26D9               	addwf	fsr2l,f,c
  7860  001A74  5006               	movf	i1CANsendMessage@data+1,w,c
  7861  001A76  22DA               	addwfc	fsr2h,f,c
  7862  001A78  50DF               	movf	indf2,w,c
  7863  001A7A  010F               	movlb	15	; () banked
  7864  001A7C  6F2B               	movwf	43,b	;volatile
  7865                           
  7866                           ; BSR set to: 15
  7867                           ;can\CANlib.h: 515: TXB2D6 = data[6];
  7868  001A7E  EE20 F006          	lfsr	2,6
  7869  001A82  5005               	movf	i1CANsendMessage@data,w,c
  7870  001A84  26D9               	addwf	fsr2l,f,c
  7871  001A86  5006               	movf	i1CANsendMessage@data+1,w,c
  7872  001A88  22DA               	addwfc	fsr2h,f,c
  7873  001A8A  50DF               	movf	indf2,w,c
  7874  001A8C  010F               	movlb	15	; () banked
  7875  001A8E  6F2C               	movwf	44,b	;volatile
  7876                           
  7877                           ; BSR set to: 15
  7878                           ;can\CANlib.h: 516: TXB2D7 = data[7];
  7879  001A90  EE20 F007          	lfsr	2,7
  7880  001A94  5005               	movf	i1CANsendMessage@data,w,c
  7881  001A96  26D9               	addwf	fsr2l,f,c
  7882  001A98  5006               	movf	i1CANsendMessage@data+1,w,c
  7883  001A9A  22DA               	addwfc	fsr2h,f,c
  7884  001A9C  50DF               	movf	indf2,w,c
  7885  001A9E  010F               	movlb	15	; () banked
  7886  001AA0  6F2D               	movwf	45,b	;volatile
  7887                           
  7888                           ; BSR set to: 15
  7889                           ;can\CANlib.h: 518: TXB2CONbits.TXREQ = 0x01;
  7890  001AA2  010F               	movlb	15	; () banked
  7891  001AA4  8720               	bsf	32,3,b	;volatile
  7892                           
  7893                           ; BSR set to: 15
  7894                           ;can\CANlib.h: 520: return;
  7895  001AA6  0012               	return	
  7896  001AA8                     __end_ofi1_CANsendMessage:
  7897                           	opt stack 0
  7898                           pclatu	equ	0xFFB
  7899                           pclath	equ	0xFFA
  7900                           tblptru	equ	0xFF8
  7901                           tblptrh	equ	0xFF7
  7902                           tblptrl	equ	0xFF6
  7903                           tablat	equ	0xFF5
  7904                           prodh	equ	0xFF4
  7905                           prodl	equ	0xFF3
  7906                           intcon	equ	0xFF2
  7907                           intcon2	equ	0xFF1
  7908                           postinc0	equ	0xFEE
  7909                           fsr0h	equ	0xFEA
  7910                           fsr0l	equ	0xFE9
  7911                           wreg	equ	0xFE8
  7912                           fsr1h	equ	0xFE2
  7913                           fsr1l	equ	0xFE1
  7914                           bsr	equ	0xFE0
  7915                           indf2	equ	0xFDF
  7916                           fsr2h	equ	0xFDA
  7917                           fsr2l	equ	0xFD9
  7918                           status	equ	0xFD8
  7919                           
  7920 ;; *************** function ___lwdiv *****************
  7921 ;; Defined at:
  7922 ;;		line 8 in file "P:\Programmi\Microchip\xc8\v1.35\sources\common\lwdiv.c"
  7923 ;; Parameters:    Size  Location     Type
  7924 ;;  dividend        2    6[COMRAM] unsigned int 
  7925 ;;  divisor         2    8[COMRAM] unsigned int 
  7926 ;; Auto vars:     Size  Location     Type
  7927 ;;  quotient        2   10[COMRAM] unsigned int 
  7928 ;;  counter         1   12[COMRAM] unsigned char 
  7929 ;; Return value:  Size  Location     Type
  7930 ;;                  2    6[COMRAM] unsigned int 
  7931 ;; Registers used:
  7932 ;;		wreg, status,2, status,0
  7933 ;; Tracked objects:
  7934 ;;		On entry : 0/0
  7935 ;;		On exit  : 0/0
  7936 ;;		Unchanged: 0/0
  7937 ;; Data sizes:     COMRAM   BANK0   BANK1   BANK2
  7938 ;;      Params:         4       0       0       0
  7939 ;;      Locals:         3       0       0       0
  7940 ;;      Temps:          0       0       0       0
  7941 ;;      Totals:         7       0       0       0
  7942 ;;Total ram usage:        7 bytes
  7943 ;; Hardware stack levels used:    1
  7944 ;; Hardware stack levels required when called:    2
  7945 ;; This function calls:
  7946 ;;		Nothing
  7947 ;; This function is called by:
  7948 ;;		_ISR_bassa
  7949 ;; This function uses a non-reentrant model
  7950 ;;
  7951                           
  7952                           	psect	text18
  7953  002918                     __ptext18:
  7954                           	opt stack 0
  7955  002918                     ___lwdiv:
  7956                           	opt stack 24
  7957                           
  7958                           ; BSR set to: 15
  7959                           ;incstack = 0
  7960  002918  0E00               	movlw	0
  7961  00291A  6E0C               	movwf	___lwdiv@quotient+1,c
  7962  00291C  0E00               	movlw	0
  7963  00291E  6E0B               	movwf	___lwdiv@quotient,c
  7964  002920  5009               	movf	___lwdiv@divisor,w,c
  7965  002922  100A               	iorwf	___lwdiv@divisor+1,w,c
  7966  002924  B4D8               	btfsc	status,2,c
  7967  002926  D01C               	goto	i1l1026
  7968  002928  0E01               	movlw	1
  7969  00292A  6E0D               	movwf	___lwdiv@counter,c
  7970  00292C  D004               	goto	i1l3575
  7971  00292E                     i1l3573:
  7972  00292E  90D8               	bcf	status,0,c
  7973  002930  3609               	rlcf	___lwdiv@divisor,f,c
  7974  002932  360A               	rlcf	___lwdiv@divisor+1,f,c
  7975  002934  2A0D               	incf	___lwdiv@counter,f,c
  7976  002936                     i1l3575:
  7977  002936  AE0A               	btfss	___lwdiv@divisor+1,7,c
  7978  002938  D7FA               	goto	i1l3573
  7979  00293A                     i1l3577:
  7980  00293A  90D8               	bcf	status,0,c
  7981  00293C  360B               	rlcf	___lwdiv@quotient,f,c
  7982  00293E  360C               	rlcf	___lwdiv@quotient+1,f,c
  7983  002940  5009               	movf	___lwdiv@divisor,w,c
  7984  002942  5C07               	subwf	___lwdiv@dividend,w,c
  7985  002944  500A               	movf	___lwdiv@divisor+1,w,c
  7986  002946  5808               	subwfb	___lwdiv@dividend+1,w,c
  7987  002948  A0D8               	btfss	status,0,c
  7988  00294A  D005               	goto	i1l3585
  7989  00294C  5009               	movf	___lwdiv@divisor,w,c
  7990  00294E  5E07               	subwf	___lwdiv@dividend,f,c
  7991  002950  500A               	movf	___lwdiv@divisor+1,w,c
  7992  002952  5A08               	subwfb	___lwdiv@dividend+1,f,c
  7993  002954  800B               	bsf	___lwdiv@quotient,0,c
  7994  002956                     i1l3585:
  7995  002956  90D8               	bcf	status,0,c
  7996  002958  320A               	rrcf	___lwdiv@divisor+1,f,c
  7997  00295A  3209               	rrcf	___lwdiv@divisor,f,c
  7998  00295C  2E0D               	decfsz	___lwdiv@counter,f,c
  7999  00295E  D7ED               	goto	i1l3577
  8000  002960                     i1l1026:
  8001  002960  C00B  F007         	movff	___lwdiv@quotient,?___lwdiv
  8002  002964  C00C  F008         	movff	___lwdiv@quotient+1,?___lwdiv+1
  8003  002968  0012               	return		;funcret
  8004  00296A                     __end_of___lwdiv:
  8005                           	opt stack 0
  8006                           pclatu	equ	0xFFB
  8007                           pclath	equ	0xFFA
  8008                           tblptru	equ	0xFF8
  8009                           tblptrh	equ	0xFF7
  8010                           tblptrl	equ	0xFF6
  8011                           tablat	equ	0xFF5
  8012                           prodh	equ	0xFF4
  8013                           prodl	equ	0xFF3
  8014                           intcon	equ	0xFF2
  8015                           intcon2	equ	0xFF1
  8016                           postinc0	equ	0xFEE
  8017                           fsr0h	equ	0xFEA
  8018                           fsr0l	equ	0xFE9
  8019                           wreg	equ	0xFE8
  8020                           fsr1h	equ	0xFE2
  8021                           fsr1l	equ	0xFE1
  8022                           bsr	equ	0xFE0
  8023                           indf2	equ	0xFDF
  8024                           fsr2h	equ	0xFDA
  8025                           fsr2l	equ	0xFD9
  8026                           status	equ	0xFD8
  8027                           
  8028 ;; *************** function _CANreceiveMessage *****************
  8029 ;; Defined at:
  8030 ;;		line 528 in file "../../Scuola/Triennio/Tesina/can\CANlib.h"
  8031 ;; Parameters:    Size  Location     Type
  8032 ;;  msg             2    0[COMRAM] PTR struct .
  8033 ;;		 -> msg(15), 
  8034 ;; Auto vars:     Size  Location     Type
  8035 ;;  tamp            1   11[COMRAM] unsigned char 
  8036 ;;  error           1   10[COMRAM] unsigned char 
  8037 ;; Return value:  Size  Location     Type
  8038 ;;                  1    wreg      unsigned char 
  8039 ;; Registers used:
  8040 ;;		wreg, fsr2l, fsr2h, status,2, status,0
  8041 ;; Tracked objects:
  8042 ;;		On entry : 0/0
  8043 ;;		On exit  : 0/0
  8044 ;;		Unchanged: 0/0
  8045 ;; Data sizes:     COMRAM   BANK0   BANK1   BANK2
  8046 ;;      Params:         2       0       0       0
  8047 ;;      Locals:         2       0       0       0
  8048 ;;      Temps:          8       0       0       0
  8049 ;;      Totals:        12       0       0       0
  8050 ;;Total ram usage:       12 bytes
  8051 ;; Hardware stack levels used:    1
  8052 ;; Hardware stack levels required when called:    2
  8053 ;; This function calls:
  8054 ;;		Nothing
  8055 ;; This function is called by:
  8056 ;;		_ISR_bassa
  8057 ;; This function uses a non-reentrant model
  8058 ;;
  8059                           
  8060                           	psect	text19
  8061  001AA8                     __ptext19:
  8062                           	opt stack 0
  8063  001AA8                     _CANreceiveMessage:
  8064                           	opt stack 24
  8065                           
  8066                           ;can\CANlib.h: 530: BYTE tamp;
  8067                           ;can\CANlib.h: 531: BYTE error = 0;
  8068                           
  8069                           ;incstack = 0
  8070  001AA8  0E00               	movlw	0
  8071  001AAA  6E0B               	movwf	CANreceiveMessage@error,c
  8072                           
  8073                           ;can\CANlib.h: 533: if (COMSTATbits.RXB0OVFL == 0x01)
  8074  001AAC  BE74               	btfsc	3956,7,c	;volatile
  8075                           
  8076                           ;can\CANlib.h: 534: error |= CAN_RX_BUFFER_1_OVFL;
  8077  001AAE  800B               	bsf	CANreceiveMessage@error,0,c
  8078                           
  8079                           ;can\CANlib.h: 536: if (COMSTATbits.RXB1OVFL == 0x01)
  8080  001AB0  BC74               	btfsc	3956,6,c	;volatile
  8081                           
  8082                           ;can\CANlib.h: 537: error |= CAN_RX_BUFFER_2_OVFL;
  8083  001AB2  820B               	bsf	CANreceiveMessage@error,1,c
  8084                           
  8085                           ;can\CANlib.h: 540: if (RXB1CONbits.RXFUL ==0x01)
  8086  001AB4  010F               	movlb	15	; () banked
  8087  001AB6  AF50               	btfss	80,7,b	;volatile
  8088  001AB8  D143               	goto	i1l386
  8089                           
  8090                           ; BSR set to: 15
  8091                           ;can\CANlib.h: 541: {
  8092                           ;can\CANlib.h: 542: msg->identifier = 0;
  8093  001ABA  C001  FFD9         	movff	CANreceiveMessage@msg,fsr2l
  8094  001ABE  C002  FFDA         	movff	CANreceiveMessage@msg+1,fsr2h
  8095  001AC2  6ADE               	clrf	postinc2,c
  8096  001AC4  6ADE               	clrf	postinc2,c
  8097  001AC6  6ADE               	clrf	postinc2,c
  8098  001AC8  6ADD               	clrf	postdec2,c
  8099                           
  8100                           ; BSR set to: 15
  8101                           ;can\CANlib.h: 543: msg->data[0] =RXB1D0;
  8102  001ACA  EE20 F004          	lfsr	2,4
  8103  001ACE  5001               	movf	CANreceiveMessage@msg,w,c
  8104  001AD0  26D9               	addwf	fsr2l,f,c
  8105  001AD2  5002               	movf	CANreceiveMessage@msg+1,w,c
  8106  001AD4  22DA               	addwfc	fsr2h,f,c
  8107  001AD6  CF56 FFDF          	movff	3926,indf2	;volatile
  8108                           
  8109                           ; BSR set to: 15
  8110                           ;can\CANlib.h: 544: msg->data[1] =RXB1D1;
  8111  001ADA  EE20 F005          	lfsr	2,5
  8112  001ADE  5001               	movf	CANreceiveMessage@msg,w,c
  8113  001AE0  26D9               	addwf	fsr2l,f,c
  8114  001AE2  5002               	movf	CANreceiveMessage@msg+1,w,c
  8115  001AE4  22DA               	addwfc	fsr2h,f,c
  8116  001AE6  CF57 FFDF          	movff	3927,indf2	;volatile
  8117                           
  8118                           ; BSR set to: 15
  8119                           ;can\CANlib.h: 545: msg->data[2] =RXB1D2;
  8120  001AEA  EE20 F006          	lfsr	2,6
  8121  001AEE  5001               	movf	CANreceiveMessage@msg,w,c
  8122  001AF0  26D9               	addwf	fsr2l,f,c
  8123  001AF2  5002               	movf	CANreceiveMessage@msg+1,w,c
  8124  001AF4  22DA               	addwfc	fsr2h,f,c
  8125  001AF6  CF58 FFDF          	movff	3928,indf2	;volatile
  8126                           
  8127                           ; BSR set to: 15
  8128                           ;can\CANlib.h: 546: msg->data[3] =RXB1D3;
  8129  001AFA  EE20 F007          	lfsr	2,7
  8130  001AFE  5001               	movf	CANreceiveMessage@msg,w,c
  8131  001B00  26D9               	addwf	fsr2l,f,c
  8132  001B02  5002               	movf	CANreceiveMessage@msg+1,w,c
  8133  001B04  22DA               	addwfc	fsr2h,f,c
  8134  001B06  CF59 FFDF          	movff	3929,indf2	;volatile
  8135                           
  8136                           ; BSR set to: 15
  8137                           ;can\CANlib.h: 547: msg->data[4] =RXB1D4;
  8138  001B0A  EE20 F008          	lfsr	2,8
  8139  001B0E  5001               	movf	CANreceiveMessage@msg,w,c
  8140  001B10  26D9               	addwf	fsr2l,f,c
  8141  001B12  5002               	movf	CANreceiveMessage@msg+1,w,c
  8142  001B14  22DA               	addwfc	fsr2h,f,c
  8143  001B16  CF5A FFDF          	movff	3930,indf2	;volatile
  8144                           
  8145                           ; BSR set to: 15
  8146                           ;can\CANlib.h: 548: msg->data[5] =RXB1D5;
  8147  001B1A  EE20 F009          	lfsr	2,9
  8148  001B1E  5001               	movf	CANreceiveMessage@msg,w,c
  8149  001B20  26D9               	addwf	fsr2l,f,c
  8150  001B22  5002               	movf	CANreceiveMessage@msg+1,w,c
  8151  001B24  22DA               	addwfc	fsr2h,f,c
  8152  001B26  CF5B FFDF          	movff	3931,indf2	;volatile
  8153                           
  8154                           ; BSR set to: 15
  8155                           ;can\CANlib.h: 549: msg->data[6] =RXB1D6;
  8156  001B2A  EE20 F00A          	lfsr	2,10
  8157  001B2E  5001               	movf	CANreceiveMessage@msg,w,c
  8158  001B30  26D9               	addwf	fsr2l,f,c
  8159  001B32  5002               	movf	CANreceiveMessage@msg+1,w,c
  8160  001B34  22DA               	addwfc	fsr2h,f,c
  8161  001B36  CF5C FFDF          	movff	3932,indf2	;volatile
  8162                           
  8163                           ; BSR set to: 15
  8164                           ;can\CANlib.h: 550: msg->data[7] =RXB1D7;
  8165  001B3A  EE20 F00B          	lfsr	2,11
  8166  001B3E  5001               	movf	CANreceiveMessage@msg,w,c
  8167  001B40  26D9               	addwf	fsr2l,f,c
  8168  001B42  5002               	movf	CANreceiveMessage@msg+1,w,c
  8169  001B44  22DA               	addwfc	fsr2h,f,c
  8170  001B46  CF5D FFDF          	movff	3933,indf2	;volatile
  8171                           
  8172                           ; BSR set to: 15
  8173                           ;can\CANlib.h: 552: msg->RTR = RXB1DLCbits.RXRTR;
  8174  001B4A  EE20 F00E          	lfsr	2,14
  8175  001B4E  5001               	movf	CANreceiveMessage@msg,w,c
  8176  001B50  26D9               	addwf	fsr2l,f,c
  8177  001B52  5002               	movf	CANreceiveMessage@msg+1,w,c
  8178  001B54  22DA               	addwfc	fsr2h,f,c
  8179  001B56  010F               	movlb	15	; () banked
  8180  001B58  AD55               	btfss	85,6,b	;volatile
  8181  001B5A  D002               	goto	i1u384_20
  8182  001B5C  0E01               	movlw	1
  8183  001B5E  D001               	goto	i1u384_26
  8184  001B60                     i1u384_20:
  8185  001B60  0E00               	movlw	0
  8186  001B62                     i1u384_26:
  8187  001B62  6EDF               	movwf	indf2,c
  8188                           
  8189                           ; BSR set to: 15
  8190                           ;can\CANlib.h: 554: msg->length = RXB1DLC & 0x0F;
  8191  001B64  EE20 F00D          	lfsr	2,13
  8192  001B68  5001               	movf	CANreceiveMessage@msg,w,c
  8193  001B6A  26D9               	addwf	fsr2l,f,c
  8194  001B6C  5002               	movf	CANreceiveMessage@msg+1,w,c
  8195  001B6E  22DA               	addwfc	fsr2h,f,c
  8196  001B70  010F               	movlb	15	; () banked
  8197  001B72  5155               	movf	85,w,b	;volatile
  8198  001B74  0B0F               	andlw	15
  8199  001B76  6EDF               	movwf	indf2,c
  8200                           
  8201                           ; BSR set to: 15
  8202                           ;can\CANlib.h: 556: msg->type = RXB1SIDLbits.EXID;
  8203  001B78  EE20 F00C          	lfsr	2,12
  8204  001B7C  5001               	movf	CANreceiveMessage@msg,w,c
  8205  001B7E  26D9               	addwf	fsr2l,f,c
  8206  001B80  5002               	movf	CANreceiveMessage@msg+1,w,c
  8207  001B82  22DA               	addwfc	fsr2h,f,c
  8208  001B84  010F               	movlb	15	; () banked
  8209  001B86  A752               	btfss	82,3,b	;volatile
  8210  001B88  D002               	goto	i1u385_20
  8211  001B8A  0E01               	movlw	1
  8212  001B8C  D001               	goto	i1u385_26
  8213  001B8E                     i1u385_20:
  8214  001B8E  0E00               	movlw	0
  8215  001B90                     i1u385_26:
  8216  001B90  6EDF               	movwf	indf2,c
  8217                           
  8218                           ; BSR set to: 15
  8219                           ;can\CANlib.h: 558: if (RXB1SIDLbits.EXID == 0)
  8220  001B92  010F               	movlb	15	; () banked
  8221  001B94  B752               	btfsc	82,3,b	;volatile
  8222  001B96  D044               	goto	i1l3355
  8223                           
  8224                           ; BSR set to: 15
  8225                           ;can\CANlib.h: 559: {
  8226                           ;can\CANlib.h: 560: msg->identifier = ((unsigned long)RXB1SIDH)<< 3;
  8227  001B98  CF51 F003          	movff	3921,??_CANreceiveMessage	;volatile
  8228  001B9C  6A04               	clrf	(??_CANreceiveMessage+1)& (0+255),c
  8229  001B9E  6A05               	clrf	(??_CANreceiveMessage+2)& (0+255),c
  8230  001BA0  6A06               	clrf	(??_CANreceiveMessage+3)& (0+255),c
  8231  001BA2  0E03               	movlw	3
  8232  001BA4                     i1u387_25:
  8233  001BA4  90D8               	bcf	status,0,c
  8234  001BA6  3603               	rlcf	??_CANreceiveMessage,f,c
  8235  001BA8  3604               	rlcf	??_CANreceiveMessage+1,f,c
  8236  001BAA  3605               	rlcf	??_CANreceiveMessage+2,f,c
  8237  001BAC  3606               	rlcf	??_CANreceiveMessage+3,f,c
  8238  001BAE  2EE8               	decfsz	wreg,f,c
  8239  001BB0  D7F9               	goto	i1u387_25
  8240  001BB2  C001  FFD9         	movff	CANreceiveMessage@msg,fsr2l
  8241  001BB6  C002  FFDA         	movff	CANreceiveMessage@msg+1,fsr2h
  8242  001BBA  C003  FFDE         	movff	??_CANreceiveMessage,postinc2
  8243  001BBE  C004  FFDE         	movff	??_CANreceiveMessage+1,postinc2
  8244  001BC2  C005  FFDE         	movff	??_CANreceiveMessage+2,postinc2
  8245  001BC6  C006  FFDE         	movff	??_CANreceiveMessage+3,postinc2
  8246                           
  8247                           ; BSR set to: 15
  8248                           ;can\CANlib.h: 561: tamp = (RXB1SIDL >> 5 ) & 0x07;
  8249  001BCA  010F               	movlb	15	; () banked
  8250  001BCC  3952               	swapf	82,w,b	;volatile
  8251  001BCE  42E8               	rrncf	wreg,f,c
  8252  001BD0  0B07               	andlw	7
  8253  001BD2  0B07               	andlw	7
  8254  001BD4  6E0C               	movwf	CANreceiveMessage@tamp,c
  8255                           
  8256                           ; BSR set to: 15
  8257                           ;can\CANlib.h: 562: msg->identifier = msg->identifier + tamp;
  8258  001BD6  C001  FFD9         	movff	CANreceiveMessage@msg,fsr2l
  8259  001BDA  C002  FFDA         	movff	CANreceiveMessage@msg+1,fsr2h
  8260  001BDE  CFDE F003          	movff	postinc2,??_CANreceiveMessage
  8261  001BE2  CFDE F004          	movff	postinc2,??_CANreceiveMessage+1
  8262  001BE6  CFDE F005          	movff	postinc2,??_CANreceiveMessage+2
  8263  001BEA  CFDE F006          	movff	postinc2,??_CANreceiveMessage+3
  8264  001BEE  500C               	movf	CANreceiveMessage@tamp,w,c
  8265  001BF0  2403               	addwf	??_CANreceiveMessage,w,c
  8266  001BF2  6E07               	movwf	(??_CANreceiveMessage+4)& (0+255),c
  8267  001BF4  0E00               	movlw	0
  8268  001BF6  2004               	addwfc	??_CANreceiveMessage+1,w,c
  8269  001BF8  6E08               	movwf	(??_CANreceiveMessage+5)& (0+255),c
  8270  001BFA  0E00               	movlw	0
  8271  001BFC  2005               	addwfc	??_CANreceiveMessage+2,w,c
  8272  001BFE  6E09               	movwf	(??_CANreceiveMessage+6)& (0+255),c
  8273  001C00  0E00               	movlw	0
  8274  001C02  2006               	addwfc	??_CANreceiveMessage+3,w,c
  8275  001C04  6E0A               	movwf	(??_CANreceiveMessage+7)& (0+255),c
  8276  001C06  C001  FFD9         	movff	CANreceiveMessage@msg,fsr2l
  8277  001C0A  C002  FFDA         	movff	CANreceiveMessage@msg+1,fsr2h
  8278  001C0E  C007  FFDE         	movff	??_CANreceiveMessage+4,postinc2
  8279  001C12  C008  FFDE         	movff	??_CANreceiveMessage+5,postinc2
  8280  001C16  C009  FFDE         	movff	??_CANreceiveMessage+6,postinc2
  8281  001C1A  C00A  FFDE         	movff	??_CANreceiveMessage+7,postinc2
  8282                           
  8283                           ;can\CANlib.h: 563: }
  8284  001C1E  D08D               	goto	i1l3381
  8285  001C20                     i1l3355:
  8286                           
  8287                           ; BSR set to: 15
  8288                           ;can\CANlib.h: 564: else
  8289                           ;can\CANlib.h: 565: {
  8290                           ;can\CANlib.h: 566: msg->identifier = (unsigned long) RXB1EIDL;
  8291  001C20  CF54 F003          	movff	3924,??_CANreceiveMessage	;volatile
  8292  001C24  6A04               	clrf	(??_CANreceiveMessage+1)& (0+255),c
  8293  001C26  6A05               	clrf	(??_CANreceiveMessage+2)& (0+255),c
  8294  001C28  6A06               	clrf	(??_CANreceiveMessage+3)& (0+255),c
  8295  001C2A  C001  FFD9         	movff	CANreceiveMessage@msg,fsr2l
  8296  001C2E  C002  FFDA         	movff	CANreceiveMessage@msg+1,fsr2h
  8297  001C32  C003  FFDE         	movff	??_CANreceiveMessage,postinc2
  8298  001C36  C004  FFDE         	movff	??_CANreceiveMessage+1,postinc2
  8299  001C3A  C005  FFDE         	movff	??_CANreceiveMessage+2,postinc2
  8300  001C3E  C006  FFDE         	movff	??_CANreceiveMessage+3,postinc2
  8301                           
  8302                           ; BSR set to: 15
  8303                           ;can\CANlib.h: 567: msg->identifier += ((unsigned long) RXB1EIDH) << 8;
  8304  001C42  CF53 F003          	movff	3923,??_CANreceiveMessage	;volatile
  8305  001C46  6A04               	clrf	(??_CANreceiveMessage+1)& (0+255),c
  8306  001C48  6A05               	clrf	(??_CANreceiveMessage+2)& (0+255),c
  8307  001C4A  6A06               	clrf	(??_CANreceiveMessage+3)& (0+255),c
  8308  001C4C  C005  F006         	movff	??_CANreceiveMessage+2,??_CANreceiveMessage+3
  8309  001C50  C004  F005         	movff	??_CANreceiveMessage+1,??_CANreceiveMessage+2
  8310  001C54  C003  F004         	movff	??_CANreceiveMessage,??_CANreceiveMessage+1
  8311  001C58  6A03               	clrf	??_CANreceiveMessage,c
  8312  001C5A  C001  FFD9         	movff	CANreceiveMessage@msg,fsr2l
  8313  001C5E  C002  FFDA         	movff	CANreceiveMessage@msg+1,fsr2h
  8314  001C62  5003               	movf	??_CANreceiveMessage,w,c
  8315  001C64  26DE               	addwf	postinc2,f,c
  8316  001C66  5004               	movf	??_CANreceiveMessage+1,w,c
  8317  001C68  22DE               	addwfc	postinc2,f,c
  8318  001C6A  5005               	movf	??_CANreceiveMessage+2,w,c
  8319  001C6C  22DE               	addwfc	postinc2,f,c
  8320  001C6E  5006               	movf	??_CANreceiveMessage+3,w,c
  8321  001C70  22DE               	addwfc	postinc2,f,c
  8322                           
  8323                           ; BSR set to: 15
  8324                           ;can\CANlib.h: 569: if (RXB1SIDLbits.EID16)
  8325  001C72  010F               	movlb	15	; () banked
  8326  001C74  A152               	btfss	82,0,b	;volatile
  8327  001C76  D00C               	goto	i1l3363
  8328                           
  8329                           ; BSR set to: 15
  8330                           ;can\CANlib.h: 570: msg->identifier |= 0x00010000;
  8331  001C78  C001  FFD9         	movff	CANreceiveMessage@msg,fsr2l
  8332  001C7C  C002  FFDA         	movff	CANreceiveMessage@msg+1,fsr2h
  8333  001C80  0E00               	movlw	0
  8334  001C82  12DE               	iorwf	postinc2,f,c
  8335  001C84  0E00               	movlw	0
  8336  001C86  12DE               	iorwf	postinc2,f,c
  8337  001C88  0E01               	movlw	1
  8338  001C8A  12DE               	iorwf	postinc2,f,c
  8339  001C8C  0E00               	movlw	0
  8340  001C8E  12DE               	iorwf	postinc2,f,c
  8341  001C90                     i1l3363:
  8342                           
  8343                           ; BSR set to: 15
  8344                           ;can\CANlib.h: 571: if (RXB1SIDLbits.EID17)
  8345  001C90  010F               	movlb	15	; () banked
  8346  001C92  A352               	btfss	82,1,b	;volatile
  8347  001C94  D00C               	goto	i1l3367
  8348                           
  8349                           ; BSR set to: 15
  8350                           ;can\CANlib.h: 572: msg->identifier |= 0x00020000;
  8351  001C96  C001  FFD9         	movff	CANreceiveMessage@msg,fsr2l
  8352  001C9A  C002  FFDA         	movff	CANreceiveMessage@msg+1,fsr2h
  8353  001C9E  0E00               	movlw	0
  8354  001CA0  12DE               	iorwf	postinc2,f,c
  8355  001CA2  0E00               	movlw	0
  8356  001CA4  12DE               	iorwf	postinc2,f,c
  8357  001CA6  0E02               	movlw	2
  8358  001CA8  12DE               	iorwf	postinc2,f,c
  8359  001CAA  0E00               	movlw	0
  8360  001CAC  12DE               	iorwf	postinc2,f,c
  8361  001CAE                     i1l3367:
  8362                           
  8363                           ; BSR set to: 15
  8364                           ;can\CANlib.h: 573: if (RXB1SIDLbits.SID0)
  8365  001CAE  010F               	movlb	15	; () banked
  8366  001CB0  AB52               	btfss	82,5,b	;volatile
  8367  001CB2  D00C               	goto	i1l3371
  8368                           
  8369                           ; BSR set to: 15
  8370                           ;can\CANlib.h: 574: msg->identifier |= 0x00040000;
  8371  001CB4  C001  FFD9         	movff	CANreceiveMessage@msg,fsr2l
  8372  001CB8  C002  FFDA         	movff	CANreceiveMessage@msg+1,fsr2h
  8373  001CBC  0E00               	movlw	0
  8374  001CBE  12DE               	iorwf	postinc2,f,c
  8375  001CC0  0E00               	movlw	0
  8376  001CC2  12DE               	iorwf	postinc2,f,c
  8377  001CC4  0E04               	movlw	4
  8378  001CC6  12DE               	iorwf	postinc2,f,c
  8379  001CC8  0E00               	movlw	0
  8380  001CCA  12DE               	iorwf	postinc2,f,c
  8381  001CCC                     i1l3371:
  8382                           
  8383                           ; BSR set to: 15
  8384                           ;can\CANlib.h: 575: if (RXB1SIDLbits.SID1)
  8385  001CCC  010F               	movlb	15	; () banked
  8386  001CCE  AD52               	btfss	82,6,b	;volatile
  8387  001CD0  D00C               	goto	i1l3375
  8388                           
  8389                           ; BSR set to: 15
  8390                           ;can\CANlib.h: 576: msg->identifier |= 0x00080000;
  8391  001CD2  C001  FFD9         	movff	CANreceiveMessage@msg,fsr2l
  8392  001CD6  C002  FFDA         	movff	CANreceiveMessage@msg+1,fsr2h
  8393  001CDA  0E00               	movlw	0
  8394  001CDC  12DE               	iorwf	postinc2,f,c
  8395  001CDE  0E00               	movlw	0
  8396  001CE0  12DE               	iorwf	postinc2,f,c
  8397  001CE2  0E08               	movlw	8
  8398  001CE4  12DE               	iorwf	postinc2,f,c
  8399  001CE6  0E00               	movlw	0
  8400  001CE8  12DE               	iorwf	postinc2,f,c
  8401  001CEA                     i1l3375:
  8402                           
  8403                           ; BSR set to: 15
  8404                           ;can\CANlib.h: 577: if (RXB1SIDLbits.SID2)
  8405  001CEA  010F               	movlb	15	; () banked
  8406  001CEC  AF52               	btfss	82,7,b	;volatile
  8407  001CEE  D00C               	goto	i1l3379
  8408                           
  8409                           ; BSR set to: 15
  8410                           ;can\CANlib.h: 578: msg->identifier |= 0x00100000;
  8411  001CF0  C001  FFD9         	movff	CANreceiveMessage@msg,fsr2l
  8412  001CF4  C002  FFDA         	movff	CANreceiveMessage@msg+1,fsr2h
  8413  001CF8  0E00               	movlw	0
  8414  001CFA  12DE               	iorwf	postinc2,f,c
  8415  001CFC  0E00               	movlw	0
  8416  001CFE  12DE               	iorwf	postinc2,f,c
  8417  001D00  0E10               	movlw	16
  8418  001D02  12DE               	iorwf	postinc2,f,c
  8419  001D04  0E00               	movlw	0
  8420  001D06  12DE               	iorwf	postinc2,f,c
  8421  001D08                     i1l3379:
  8422                           
  8423                           ; BSR set to: 15
  8424                           ;can\CANlib.h: 580: msg->identifier |= ((unsigned long) RXB1SIDH) << 21;
  8425  001D08  CF51 F003          	movff	3921,??_CANreceiveMessage	;volatile
  8426  001D0C  6A04               	clrf	(??_CANreceiveMessage+1)& (0+255),c
  8427  001D0E  6A05               	clrf	(??_CANreceiveMessage+2)& (0+255),c
  8428  001D10  6A06               	clrf	(??_CANreceiveMessage+3)& (0+255),c
  8429  001D12  0E15               	movlw	21
  8430  001D14                     i1u393_25:
  8431  001D14  90D8               	bcf	status,0,c
  8432  001D16  3603               	rlcf	??_CANreceiveMessage,f,c
  8433  001D18  3604               	rlcf	??_CANreceiveMessage+1,f,c
  8434  001D1A  3605               	rlcf	??_CANreceiveMessage+2,f,c
  8435  001D1C  3606               	rlcf	??_CANreceiveMessage+3,f,c
  8436  001D1E  2EE8               	decfsz	wreg,f,c
  8437  001D20  D7F9               	goto	i1u393_25
  8438  001D22  C001  FFD9         	movff	CANreceiveMessage@msg,fsr2l
  8439  001D26  C002  FFDA         	movff	CANreceiveMessage@msg+1,fsr2h
  8440  001D2A  5003               	movf	??_CANreceiveMessage,w,c
  8441  001D2C  12DE               	iorwf	postinc2,f,c
  8442  001D2E  5004               	movf	??_CANreceiveMessage+1,w,c
  8443  001D30  12DE               	iorwf	postinc2,f,c
  8444  001D32  5005               	movf	??_CANreceiveMessage+2,w,c
  8445  001D34  12DE               	iorwf	postinc2,f,c
  8446  001D36  5006               	movf	??_CANreceiveMessage+3,w,c
  8447  001D38  12DE               	iorwf	postinc2,f,c
  8448  001D3A                     i1l3381:
  8449                           
  8450                           ; BSR set to: 15
  8451                           ;can\CANlib.h: 581: }
  8452                           ;can\CANlib.h: 583: RXB1CONbits.RXFUL = 0x00;
  8453  001D3A  010F               	movlb	15	; () banked
  8454  001D3C  9F50               	bcf	80,7,b	;volatile
  8455                           
  8456                           ; BSR set to: 15
  8457                           ;can\CANlib.h: 584: return (error);
  8458                           ;	Return value of _CANreceiveMessage is never used
  8459  001D3E  0012               	return	
  8460  001D40                     i1l386:
  8461                           
  8462                           ; BSR set to: 15
  8463                           ;can\CANlib.h: 585: }
  8464                           ;can\CANlib.h: 587: if (RXB0CONbits.RXFUL ==0x01)
  8465  001D40  AE60               	btfss	3936,7,c	;volatile
  8466  001D42  0012               	return	
  8467                           
  8468                           ; BSR set to: 15
  8469                           ;can\CANlib.h: 588: {
  8470                           ;can\CANlib.h: 589: msg->identifier = 0;
  8471  001D44  C001  FFD9         	movff	CANreceiveMessage@msg,fsr2l
  8472  001D48  C002  FFDA         	movff	CANreceiveMessage@msg+1,fsr2h
  8473  001D4C  6ADE               	clrf	postinc2,c
  8474  001D4E  6ADE               	clrf	postinc2,c
  8475  001D50  6ADE               	clrf	postinc2,c
  8476  001D52  6ADD               	clrf	postdec2,c
  8477                           
  8478                           ; BSR set to: 15
  8479                           ;can\CANlib.h: 590: msg->data[0] =RXB0D0;
  8480  001D54  EE20 F004          	lfsr	2,4
  8481  001D58  5001               	movf	CANreceiveMessage@msg,w,c
  8482  001D5A  26D9               	addwf	fsr2l,f,c
  8483  001D5C  5002               	movf	CANreceiveMessage@msg+1,w,c
  8484  001D5E  22DA               	addwfc	fsr2h,f,c
  8485  001D60  CF66 FFDF          	movff	3942,indf2	;volatile
  8486                           
  8487                           ; BSR set to: 15
  8488                           ;can\CANlib.h: 591: msg->data[1] =RXB0D1;
  8489  001D64  EE20 F005          	lfsr	2,5
  8490  001D68  5001               	movf	CANreceiveMessage@msg,w,c
  8491  001D6A  26D9               	addwf	fsr2l,f,c
  8492  001D6C  5002               	movf	CANreceiveMessage@msg+1,w,c
  8493  001D6E  22DA               	addwfc	fsr2h,f,c
  8494  001D70  CF67 FFDF          	movff	3943,indf2	;volatile
  8495                           
  8496                           ; BSR set to: 15
  8497                           ;can\CANlib.h: 592: msg->data[2] =RXB0D2;
  8498  001D74  EE20 F006          	lfsr	2,6
  8499  001D78  5001               	movf	CANreceiveMessage@msg,w,c
  8500  001D7A  26D9               	addwf	fsr2l,f,c
  8501  001D7C  5002               	movf	CANreceiveMessage@msg+1,w,c
  8502  001D7E  22DA               	addwfc	fsr2h,f,c
  8503  001D80  CF68 FFDF          	movff	3944,indf2	;volatile
  8504                           
  8505                           ; BSR set to: 15
  8506                           ;can\CANlib.h: 593: msg->data[3] =RXB0D3;
  8507  001D84  EE20 F007          	lfsr	2,7
  8508  001D88  5001               	movf	CANreceiveMessage@msg,w,c
  8509  001D8A  26D9               	addwf	fsr2l,f,c
  8510  001D8C  5002               	movf	CANreceiveMessage@msg+1,w,c
  8511  001D8E  22DA               	addwfc	fsr2h,f,c
  8512  001D90  CF69 FFDF          	movff	3945,indf2	;volatile
  8513                           
  8514                           ; BSR set to: 15
  8515                           ;can\CANlib.h: 594: msg->data[4] =RXB0D4;
  8516  001D94  EE20 F008          	lfsr	2,8
  8517  001D98  5001               	movf	CANreceiveMessage@msg,w,c
  8518  001D9A  26D9               	addwf	fsr2l,f,c
  8519  001D9C  5002               	movf	CANreceiveMessage@msg+1,w,c
  8520  001D9E  22DA               	addwfc	fsr2h,f,c
  8521  001DA0  CF6A FFDF          	movff	3946,indf2	;volatile
  8522                           
  8523                           ; BSR set to: 15
  8524                           ;can\CANlib.h: 595: msg->data[5] =RXB0D5;
  8525  001DA4  EE20 F009          	lfsr	2,9
  8526  001DA8  5001               	movf	CANreceiveMessage@msg,w,c
  8527  001DAA  26D9               	addwf	fsr2l,f,c
  8528  001DAC  5002               	movf	CANreceiveMessage@msg+1,w,c
  8529  001DAE  22DA               	addwfc	fsr2h,f,c
  8530  001DB0  CF6B FFDF          	movff	3947,indf2	;volatile
  8531                           
  8532                           ; BSR set to: 15
  8533                           ;can\CANlib.h: 596: msg->data[6] =RXB0D6;
  8534  001DB4  EE20 F00A          	lfsr	2,10
  8535  001DB8  5001               	movf	CANreceiveMessage@msg,w,c
  8536  001DBA  26D9               	addwf	fsr2l,f,c
  8537  001DBC  5002               	movf	CANreceiveMessage@msg+1,w,c
  8538  001DBE  22DA               	addwfc	fsr2h,f,c
  8539  001DC0  CF6C FFDF          	movff	3948,indf2	;volatile
  8540                           
  8541                           ; BSR set to: 15
  8542                           ;can\CANlib.h: 597: msg->data[7] =RXB0D7;
  8543  001DC4  EE20 F00B          	lfsr	2,11
  8544  001DC8  5001               	movf	CANreceiveMessage@msg,w,c
  8545  001DCA  26D9               	addwf	fsr2l,f,c
  8546  001DCC  5002               	movf	CANreceiveMessage@msg+1,w,c
  8547  001DCE  22DA               	addwfc	fsr2h,f,c
  8548  001DD0  CF6D FFDF          	movff	3949,indf2	;volatile
  8549                           
  8550                           ; BSR set to: 15
  8551                           ;can\CANlib.h: 599: msg->RTR = RXB0DLCbits.RXRTR;
  8552  001DD4  EE20 F00E          	lfsr	2,14
  8553  001DD8  5001               	movf	CANreceiveMessage@msg,w,c
  8554  001DDA  26D9               	addwf	fsr2l,f,c
  8555  001DDC  5002               	movf	CANreceiveMessage@msg+1,w,c
  8556  001DDE  22DA               	addwfc	fsr2h,f,c
  8557  001DE0  AC65               	btfss	3941,6,c	;volatile
  8558  001DE2  D002               	goto	i1u395_20
  8559  001DE4  0E01               	movlw	1
  8560  001DE6  D001               	goto	i1u395_26
  8561  001DE8                     i1u395_20:
  8562  001DE8  0E00               	movlw	0
  8563  001DEA                     i1u395_26:
  8564  001DEA  6EDF               	movwf	indf2,c
  8565                           
  8566                           ; BSR set to: 15
  8567                           ;can\CANlib.h: 601: msg->length = RXB0DLC & 0x0F;
  8568  001DEC  EE20 F00D          	lfsr	2,13
  8569  001DF0  5001               	movf	CANreceiveMessage@msg,w,c
  8570  001DF2  26D9               	addwf	fsr2l,f,c
  8571  001DF4  5002               	movf	CANreceiveMessage@msg+1,w,c
  8572  001DF6  22DA               	addwfc	fsr2h,f,c
  8573  001DF8  5065               	movf	3941,w,c	;volatile
  8574  001DFA  0B0F               	andlw	15
  8575  001DFC  6EDF               	movwf	indf2,c
  8576                           
  8577                           ; BSR set to: 15
  8578                           ;can\CANlib.h: 603: msg->type = RXB0SIDLbits.EXID;
  8579  001DFE  EE20 F00C          	lfsr	2,12
  8580  001E02  5001               	movf	CANreceiveMessage@msg,w,c
  8581  001E04  26D9               	addwf	fsr2l,f,c
  8582  001E06  5002               	movf	CANreceiveMessage@msg+1,w,c
  8583  001E08  22DA               	addwfc	fsr2h,f,c
  8584  001E0A  A662               	btfss	3938,3,c	;volatile
  8585  001E0C  D002               	goto	i1u396_20
  8586  001E0E  0E01               	movlw	1
  8587  001E10  D001               	goto	i1u396_26
  8588  001E12                     i1u396_20:
  8589  001E12  0E00               	movlw	0
  8590  001E14                     i1u396_26:
  8591  001E14  6EDF               	movwf	indf2,c
  8592                           
  8593                           ; BSR set to: 15
  8594                           ;can\CANlib.h: 605: if (RXB0SIDLbits.EXID == 0)
  8595  001E16  B662               	btfsc	3938,3,c	;volatile
  8596  001E18  D043               	goto	i1l3417
  8597                           
  8598                           ; BSR set to: 15
  8599                           ;can\CANlib.h: 606: {
  8600                           ;can\CANlib.h: 607: msg->identifier = ((unsigned long)RXB0SIDH)<< 3;
  8601  001E1A  CF61 F003          	movff	3937,??_CANreceiveMessage	;volatile
  8602  001E1E  6A04               	clrf	(??_CANreceiveMessage+1)& (0+255),c
  8603  001E20  6A05               	clrf	(??_CANreceiveMessage+2)& (0+255),c
  8604  001E22  6A06               	clrf	(??_CANreceiveMessage+3)& (0+255),c
  8605  001E24  0E03               	movlw	3
  8606  001E26                     i1u398_25:
  8607  001E26  90D8               	bcf	status,0,c
  8608  001E28  3603               	rlcf	??_CANreceiveMessage,f,c
  8609  001E2A  3604               	rlcf	??_CANreceiveMessage+1,f,c
  8610  001E2C  3605               	rlcf	??_CANreceiveMessage+2,f,c
  8611  001E2E  3606               	rlcf	??_CANreceiveMessage+3,f,c
  8612  001E30  2EE8               	decfsz	wreg,f,c
  8613  001E32  D7F9               	goto	i1u398_25
  8614  001E34  C001  FFD9         	movff	CANreceiveMessage@msg,fsr2l
  8615  001E38  C002  FFDA         	movff	CANreceiveMessage@msg+1,fsr2h
  8616  001E3C  C003  FFDE         	movff	??_CANreceiveMessage,postinc2
  8617  001E40  C004  FFDE         	movff	??_CANreceiveMessage+1,postinc2
  8618  001E44  C005  FFDE         	movff	??_CANreceiveMessage+2,postinc2
  8619  001E48  C006  FFDE         	movff	??_CANreceiveMessage+3,postinc2
  8620                           
  8621                           ; BSR set to: 15
  8622                           ;can\CANlib.h: 608: tamp = (RXB0SIDL >> 5 ) & 0x07;
  8623  001E4C  3862               	swapf	3938,w,c	;volatile
  8624  001E4E  42E8               	rrncf	wreg,f,c
  8625  001E50  0B07               	andlw	7
  8626  001E52  0B07               	andlw	7
  8627  001E54  6E0C               	movwf	CANreceiveMessage@tamp,c
  8628                           
  8629                           ; BSR set to: 15
  8630                           ;can\CANlib.h: 609: msg->identifier = msg->identifier + tamp;
  8631  001E56  C001  FFD9         	movff	CANreceiveMessage@msg,fsr2l
  8632  001E5A  C002  FFDA         	movff	CANreceiveMessage@msg+1,fsr2h
  8633  001E5E  CFDE F003          	movff	postinc2,??_CANreceiveMessage
  8634  001E62  CFDE F004          	movff	postinc2,??_CANreceiveMessage+1
  8635  001E66  CFDE F005          	movff	postinc2,??_CANreceiveMessage+2
  8636  001E6A  CFDE F006          	movff	postinc2,??_CANreceiveMessage+3
  8637  001E6E  500C               	movf	CANreceiveMessage@tamp,w,c
  8638  001E70  2403               	addwf	??_CANreceiveMessage,w,c
  8639  001E72  6E07               	movwf	(??_CANreceiveMessage+4)& (0+255),c
  8640  001E74  0E00               	movlw	0
  8641  001E76  2004               	addwfc	??_CANreceiveMessage+1,w,c
  8642  001E78  6E08               	movwf	(??_CANreceiveMessage+5)& (0+255),c
  8643  001E7A  0E00               	movlw	0
  8644  001E7C  2005               	addwfc	??_CANreceiveMessage+2,w,c
  8645  001E7E  6E09               	movwf	(??_CANreceiveMessage+6)& (0+255),c
  8646  001E80  0E00               	movlw	0
  8647  001E82  2006               	addwfc	??_CANreceiveMessage+3,w,c
  8648  001E84  6E0A               	movwf	(??_CANreceiveMessage+7)& (0+255),c
  8649  001E86  C001  FFD9         	movff	CANreceiveMessage@msg,fsr2l
  8650  001E8A  C002  FFDA         	movff	CANreceiveMessage@msg+1,fsr2h
  8651  001E8E  C007  FFDE         	movff	??_CANreceiveMessage+4,postinc2
  8652  001E92  C008  FFDE         	movff	??_CANreceiveMessage+5,postinc2
  8653  001E96  C009  FFDE         	movff	??_CANreceiveMessage+6,postinc2
  8654  001E9A  C00A  FFDE         	movff	??_CANreceiveMessage+7,postinc2
  8655                           
  8656                           ;can\CANlib.h: 610: }
  8657  001E9E  D088               	goto	i1l3443
  8658  001EA0                     i1l3417:
  8659                           
  8660                           ; BSR set to: 15
  8661                           ;can\CANlib.h: 611: else
  8662                           ;can\CANlib.h: 612: {
  8663                           ;can\CANlib.h: 613: msg->identifier = (unsigned long) RXB0EIDL;
  8664  001EA0  CF64 F003          	movff	3940,??_CANreceiveMessage	;volatile
  8665  001EA4  6A04               	clrf	(??_CANreceiveMessage+1)& (0+255),c
  8666  001EA6  6A05               	clrf	(??_CANreceiveMessage+2)& (0+255),c
  8667  001EA8  6A06               	clrf	(??_CANreceiveMessage+3)& (0+255),c
  8668  001EAA  C001  FFD9         	movff	CANreceiveMessage@msg,fsr2l
  8669  001EAE  C002  FFDA         	movff	CANreceiveMessage@msg+1,fsr2h
  8670  001EB2  C003  FFDE         	movff	??_CANreceiveMessage,postinc2
  8671  001EB6  C004  FFDE         	movff	??_CANreceiveMessage+1,postinc2
  8672  001EBA  C005  FFDE         	movff	??_CANreceiveMessage+2,postinc2
  8673  001EBE  C006  FFDE         	movff	??_CANreceiveMessage+3,postinc2
  8674                           
  8675                           ; BSR set to: 15
  8676                           ;can\CANlib.h: 614: msg->identifier += ((unsigned long) RXB0EIDH) << 8;
  8677  001EC2  CF63 F003          	movff	3939,??_CANreceiveMessage	;volatile
  8678  001EC6  6A04               	clrf	(??_CANreceiveMessage+1)& (0+255),c
  8679  001EC8  6A05               	clrf	(??_CANreceiveMessage+2)& (0+255),c
  8680  001ECA  6A06               	clrf	(??_CANreceiveMessage+3)& (0+255),c
  8681  001ECC  C005  F006         	movff	??_CANreceiveMessage+2,??_CANreceiveMessage+3
  8682  001ED0  C004  F005         	movff	??_CANreceiveMessage+1,??_CANreceiveMessage+2
  8683  001ED4  C003  F004         	movff	??_CANreceiveMessage,??_CANreceiveMessage+1
  8684  001ED8  6A03               	clrf	??_CANreceiveMessage,c
  8685  001EDA  C001  FFD9         	movff	CANreceiveMessage@msg,fsr2l
  8686  001EDE  C002  FFDA         	movff	CANreceiveMessage@msg+1,fsr2h
  8687  001EE2  5003               	movf	??_CANreceiveMessage,w,c
  8688  001EE4  26DE               	addwf	postinc2,f,c
  8689  001EE6  5004               	movf	??_CANreceiveMessage+1,w,c
  8690  001EE8  22DE               	addwfc	postinc2,f,c
  8691  001EEA  5005               	movf	??_CANreceiveMessage+2,w,c
  8692  001EEC  22DE               	addwfc	postinc2,f,c
  8693  001EEE  5006               	movf	??_CANreceiveMessage+3,w,c
  8694  001EF0  22DE               	addwfc	postinc2,f,c
  8695                           
  8696                           ; BSR set to: 15
  8697                           ;can\CANlib.h: 616: if (RXB0SIDLbits.EID16)
  8698  001EF2  A062               	btfss	3938,0,c	;volatile
  8699  001EF4  D00C               	goto	i1l3425
  8700                           
  8701                           ; BSR set to: 15
  8702                           ;can\CANlib.h: 617: msg->identifier |= 0x00010000;
  8703  001EF6  C001  FFD9         	movff	CANreceiveMessage@msg,fsr2l
  8704  001EFA  C002  FFDA         	movff	CANreceiveMessage@msg+1,fsr2h
  8705  001EFE  0E00               	movlw	0
  8706  001F00  12DE               	iorwf	postinc2,f,c
  8707  001F02  0E00               	movlw	0
  8708  001F04  12DE               	iorwf	postinc2,f,c
  8709  001F06  0E01               	movlw	1
  8710  001F08  12DE               	iorwf	postinc2,f,c
  8711  001F0A  0E00               	movlw	0
  8712  001F0C  12DE               	iorwf	postinc2,f,c
  8713  001F0E                     i1l3425:
  8714                           
  8715                           ; BSR set to: 15
  8716                           ;can\CANlib.h: 618: if (RXB0SIDLbits.EID17)
  8717  001F0E  A262               	btfss	3938,1,c	;volatile
  8718  001F10  D00C               	goto	i1l3429
  8719                           
  8720                           ; BSR set to: 15
  8721                           ;can\CANlib.h: 619: msg->identifier |= 0x00020000;
  8722  001F12  C001  FFD9         	movff	CANreceiveMessage@msg,fsr2l
  8723  001F16  C002  FFDA         	movff	CANreceiveMessage@msg+1,fsr2h
  8724  001F1A  0E00               	movlw	0
  8725  001F1C  12DE               	iorwf	postinc2,f,c
  8726  001F1E  0E00               	movlw	0
  8727  001F20  12DE               	iorwf	postinc2,f,c
  8728  001F22  0E02               	movlw	2
  8729  001F24  12DE               	iorwf	postinc2,f,c
  8730  001F26  0E00               	movlw	0
  8731  001F28  12DE               	iorwf	postinc2,f,c
  8732  001F2A                     i1l3429:
  8733                           
  8734                           ; BSR set to: 15
  8735                           ;can\CANlib.h: 620: if (RXB0SIDLbits.SID0)
  8736  001F2A  AA62               	btfss	3938,5,c	;volatile
  8737  001F2C  D00C               	goto	i1l3433
  8738                           
  8739                           ; BSR set to: 15
  8740                           ;can\CANlib.h: 621: msg->identifier |= 0x00040000;
  8741  001F2E  C001  FFD9         	movff	CANreceiveMessage@msg,fsr2l
  8742  001F32  C002  FFDA         	movff	CANreceiveMessage@msg+1,fsr2h
  8743  001F36  0E00               	movlw	0
  8744  001F38  12DE               	iorwf	postinc2,f,c
  8745  001F3A  0E00               	movlw	0
  8746  001F3C  12DE               	iorwf	postinc2,f,c
  8747  001F3E  0E04               	movlw	4
  8748  001F40  12DE               	iorwf	postinc2,f,c
  8749  001F42  0E00               	movlw	0
  8750  001F44  12DE               	iorwf	postinc2,f,c
  8751  001F46                     i1l3433:
  8752                           
  8753                           ; BSR set to: 15
  8754                           ;can\CANlib.h: 622: if (RXB0SIDLbits.SID1)
  8755  001F46  AC62               	btfss	3938,6,c	;volatile
  8756  001F48  D00C               	goto	i1l3437
  8757                           
  8758                           ; BSR set to: 15
  8759                           ;can\CANlib.h: 623: msg->identifier |= 0x00080000;
  8760  001F4A  C001  FFD9         	movff	CANreceiveMessage@msg,fsr2l
  8761  001F4E  C002  FFDA         	movff	CANreceiveMessage@msg+1,fsr2h
  8762  001F52  0E00               	movlw	0
  8763  001F54  12DE               	iorwf	postinc2,f,c
  8764  001F56  0E00               	movlw	0
  8765  001F58  12DE               	iorwf	postinc2,f,c
  8766  001F5A  0E08               	movlw	8
  8767  001F5C  12DE               	iorwf	postinc2,f,c
  8768  001F5E  0E00               	movlw	0
  8769  001F60  12DE               	iorwf	postinc2,f,c
  8770  001F62                     i1l3437:
  8771                           
  8772                           ; BSR set to: 15
  8773                           ;can\CANlib.h: 624: if (RXB0SIDLbits.SID2)
  8774  001F62  AE62               	btfss	3938,7,c	;volatile
  8775  001F64  D00C               	goto	i1l3441
  8776                           
  8777                           ; BSR set to: 15
  8778                           ;can\CANlib.h: 625: msg->identifier |= 0x00100000;
  8779  001F66  C001  FFD9         	movff	CANreceiveMessage@msg,fsr2l
  8780  001F6A  C002  FFDA         	movff	CANreceiveMessage@msg+1,fsr2h
  8781  001F6E  0E00               	movlw	0
  8782  001F70  12DE               	iorwf	postinc2,f,c
  8783  001F72  0E00               	movlw	0
  8784  001F74  12DE               	iorwf	postinc2,f,c
  8785  001F76  0E10               	movlw	16
  8786  001F78  12DE               	iorwf	postinc2,f,c
  8787  001F7A  0E00               	movlw	0
  8788  001F7C  12DE               	iorwf	postinc2,f,c
  8789  001F7E                     i1l3441:
  8790                           
  8791                           ; BSR set to: 15
  8792                           ;can\CANlib.h: 627: msg->identifier |= ((unsigned long) RXB0SIDH) << 21;
  8793  001F7E  CF61 F003          	movff	3937,??_CANreceiveMessage	;volatile
  8794  001F82  6A04               	clrf	(??_CANreceiveMessage+1)& (0+255),c
  8795  001F84  6A05               	clrf	(??_CANreceiveMessage+2)& (0+255),c
  8796  001F86  6A06               	clrf	(??_CANreceiveMessage+3)& (0+255),c
  8797  001F88  0E15               	movlw	21
  8798  001F8A                     i1u404_25:
  8799  001F8A  90D8               	bcf	status,0,c
  8800  001F8C  3603               	rlcf	??_CANreceiveMessage,f,c
  8801  001F8E  3604               	rlcf	??_CANreceiveMessage+1,f,c
  8802  001F90  3605               	rlcf	??_CANreceiveMessage+2,f,c
  8803  001F92  3606               	rlcf	??_CANreceiveMessage+3,f,c
  8804  001F94  2EE8               	decfsz	wreg,f,c
  8805  001F96  D7F9               	goto	i1u404_25
  8806  001F98  C001  FFD9         	movff	CANreceiveMessage@msg,fsr2l
  8807  001F9C  C002  FFDA         	movff	CANreceiveMessage@msg+1,fsr2h
  8808  001FA0  5003               	movf	??_CANreceiveMessage,w,c
  8809  001FA2  12DE               	iorwf	postinc2,f,c
  8810  001FA4  5004               	movf	??_CANreceiveMessage+1,w,c
  8811  001FA6  12DE               	iorwf	postinc2,f,c
  8812  001FA8  5005               	movf	??_CANreceiveMessage+2,w,c
  8813  001FAA  12DE               	iorwf	postinc2,f,c
  8814  001FAC  5006               	movf	??_CANreceiveMessage+3,w,c
  8815  001FAE  12DE               	iorwf	postinc2,f,c
  8816  001FB0                     i1l3443:
  8817                           
  8818                           ; BSR set to: 15
  8819                           ;can\CANlib.h: 629: }
  8820                           ;can\CANlib.h: 630: RXB0CONbits.RXFUL = 0x00;
  8821  001FB0  9E60               	bcf	3936,7,c	;volatile
  8822                           
  8823                           ; BSR set to: 15
  8824                           ;can\CANlib.h: 632: return (error);
  8825                           ;	Return value of _CANreceiveMessage is never used
  8826  001FB2  0012               	return	
  8827  001FB4                     __end_of_CANreceiveMessage:
  8828                           	opt stack 0
  8829                           pclatu	equ	0xFFB
  8830                           pclath	equ	0xFFA
  8831                           tblptru	equ	0xFF8
  8832                           tblptrh	equ	0xFF7
  8833                           tblptrl	equ	0xFF6
  8834                           tablat	equ	0xFF5
  8835                           prodh	equ	0xFF4
  8836                           prodl	equ	0xFF3
  8837                           intcon	equ	0xFF2
  8838                           intcon2	equ	0xFF1
  8839                           postinc0	equ	0xFEE
  8840                           fsr0h	equ	0xFEA
  8841                           fsr0l	equ	0xFE9
  8842                           wreg	equ	0xFE8
  8843                           fsr1h	equ	0xFE2
  8844                           fsr1l	equ	0xFE1
  8845                           bsr	equ	0xFE0
  8846                           indf2	equ	0xFDF
  8847                           postinc2	equ	0xFDE
  8848                           postdec2	equ	0xFDD
  8849                           fsr2h	equ	0xFDA
  8850                           fsr2l	equ	0xFD9
  8851                           status	equ	0xFD8
  8852                           
  8853 ;; *************** function _CANisRxReady *****************
  8854 ;; Defined at:
  8855 ;;		line 1163 in file "../../Scuola/Triennio/Tesina/can\CANlib.h"
  8856 ;; Parameters:    Size  Location     Type
  8857 ;;		None
  8858 ;; Auto vars:     Size  Location     Type
  8859 ;;		None
  8860 ;; Return value:  Size  Location     Type
  8861 ;;                  1    wreg      unsigned char 
  8862 ;; Registers used:
  8863 ;;		wreg, status,2
  8864 ;; Tracked objects:
  8865 ;;		On entry : 0/0
  8866 ;;		On exit  : 0/0
  8867 ;;		Unchanged: 0/0
  8868 ;; Data sizes:     COMRAM   BANK0   BANK1   BANK2
  8869 ;;      Params:         0       0       0       0
  8870 ;;      Locals:         1       0       0       0
  8871 ;;      Temps:          0       0       0       0
  8872 ;;      Totals:         1       0       0       0
  8873 ;;Total ram usage:        1 bytes
  8874 ;; Hardware stack levels used:    1
  8875 ;; Hardware stack levels required when called:    2
  8876 ;; This function calls:
  8877 ;;		Nothing
  8878 ;; This function is called by:
  8879 ;;		_ISR_bassa
  8880 ;; This function uses a non-reentrant model
  8881 ;;
  8882                           
  8883                           	psect	text20
  8884  002A78                     __ptext20:
  8885                           	opt stack 0
  8886  002A78                     _CANisRxReady:
  8887                           	opt stack 24
  8888                           
  8889                           ;can\CANlib.h: 1165: return (RXB0CONbits.RXFUL || RXB1CONbits.RXFUL);
  8890                           
  8891                           ; BSR set to: 15
  8892                           ;incstack = 0
  8893  002A78  0E01               	movlw	1
  8894  002A7A  6E01               	movwf	_CANisRxReady$2802,c
  8895  002A7C  BE60               	btfsc	3936,7,c	;volatile
  8896  002A7E  D005               	goto	i1l537
  8897  002A80  010F               	movlb	15	; () banked
  8898  002A82  BF50               	btfsc	80,7,b	;volatile
  8899  002A84  D002               	goto	i1l537
  8900                           
  8901                           ; BSR set to: 15
  8902  002A86  0E00               	movlw	0
  8903  002A88  6E01               	movwf	_CANisRxReady$2802,c
  8904  002A8A                     i1l537:
  8905  002A8A  5001               	movf	_CANisRxReady$2802,w,c
  8906  002A8C  0012               	return	
  8907  002A8E                     __end_of_CANisRxReady:
  8908                           	opt stack 0
  8909                           pclatu	equ	0xFFB
  8910                           pclath	equ	0xFFA
  8911                           tblptru	equ	0xFF8
  8912                           tblptrh	equ	0xFF7
  8913                           tblptrl	equ	0xFF6
  8914                           tablat	equ	0xFF5
  8915                           prodh	equ	0xFF4
  8916                           prodl	equ	0xFF3
  8917                           intcon	equ	0xFF2
  8918                           intcon2	equ	0xFF1
  8919                           postinc0	equ	0xFEE
  8920                           fsr0h	equ	0xFEA
  8921                           fsr0l	equ	0xFE9
  8922                           wreg	equ	0xFE8
  8923                           fsr1h	equ	0xFE2
  8924                           fsr1l	equ	0xFE1
  8925                           bsr	equ	0xFE0
  8926                           indf2	equ	0xFDF
  8927                           postinc2	equ	0xFDE
  8928                           postdec2	equ	0xFDD
  8929                           fsr2h	equ	0xFDA
  8930                           fsr2l	equ	0xFD9
  8931                           status	equ	0xFD8
  8932                           
  8933 ;; *************** function _ISR_alta *****************
  8934 ;; Defined at:
  8935 ;;		line 65 in file "sterzo.c"
  8936 ;; Parameters:    Size  Location     Type
  8937 ;;		None
  8938 ;; Auto vars:     Size  Location     Type
  8939 ;;		None
  8940 ;; Return value:  Size  Location     Type
  8941 ;;		None               void
  8942 ;; Registers used:
  8943 ;;		wreg, status,2, status,0, cstack
  8944 ;; Tracked objects:
  8945 ;;		On entry : 0/0
  8946 ;;		On exit  : 0/0
  8947 ;;		Unchanged: 0/0
  8948 ;; Data sizes:     COMRAM   BANK0   BANK1   BANK2
  8949 ;;      Params:         0       0       0       0
  8950 ;;      Locals:         0       0       0       0
  8951 ;;      Temps:          0      15       0       0
  8952 ;;      Totals:         0      15       0       0
  8953 ;;Total ram usage:       15 bytes
  8954 ;; Hardware stack levels used:    1
  8955 ;; Hardware stack levels required when called:    1
  8956 ;; This function calls:
  8957 ;;		_WriteTimer0
  8958 ;; This function is called by:
  8959 ;;		Interrupt level 2
  8960 ;; This function uses a non-reentrant model
  8961 ;;
  8962                           
  8963                           	psect	intcode
  8964  000008                     __pintcode:
  8965                           	opt stack 0
  8966  000008                     _ISR_alta:
  8967                           	opt stack 24
  8968                           
  8969                           ;incstack = 0
  8970  000008  8246               	bsf	btemp,1,c	;set compiler interrupt flag (level 2)
  8971  00000A  CFFA F065          	movff	pclath,??_ISR_alta+1
  8972  00000E  CFFB F066          	movff	pclatu,??_ISR_alta+2
  8973  000012  ED93  F013         	call	int_func,f	;refresh shadow registers
  8974                           pclatu	equ	0xFFB
  8975                           pclath	equ	0xFFA
  8976                           tblptru	equ	0xFF8
  8977                           tblptrh	equ	0xFF7
  8978                           tblptrl	equ	0xFF6
  8979                           tablat	equ	0xFF5
  8980                           prodh	equ	0xFF4
  8981                           prodl	equ	0xFF3
  8982                           intcon	equ	0xFF2
  8983                           intcon2	equ	0xFF1
  8984                           postinc0	equ	0xFEE
  8985                           fsr0h	equ	0xFEA
  8986                           fsr0l	equ	0xFE9
  8987                           wreg	equ	0xFE8
  8988                           fsr1h	equ	0xFE2
  8989                           fsr1l	equ	0xFE1
  8990                           bsr	equ	0xFE0
  8991                           indf2	equ	0xFDF
  8992                           postinc2	equ	0xFDE
  8993                           postdec2	equ	0xFDD
  8994                           fsr2h	equ	0xFDA
  8995                           fsr2l	equ	0xFD9
  8996                           status	equ	0xFD8
  8997                           
  8998                           	psect	intcode_body
  8999  002726                     __pintcode_body:
  9000                           	opt stack 24
  9001  002726                     int_func:
  9002                           	opt stack 24
  9003  002726  0006               	pop		; remove dummy address from shadow register refresh
  9004  002728  CFE9 F067          	movff	fsr0l,??_ISR_alta+3
  9005  00272C  CFEA F068          	movff	fsr0h,??_ISR_alta+4
  9006  002730  CFE1 F069          	movff	fsr1l,??_ISR_alta+5
  9007  002734  CFE2 F06A          	movff	fsr1h,??_ISR_alta+6
  9008  002738  CFD9 F06B          	movff	fsr2l,??_ISR_alta+7
  9009  00273C  CFDA F06C          	movff	fsr2h,??_ISR_alta+8
  9010  002740  CFF3 F06D          	movff	prodl,??_ISR_alta+9
  9011  002744  CFF4 F06E          	movff	prodh,??_ISR_alta+10
  9012  002748  CFF6 F06F          	movff	tblptrl,??_ISR_alta+11
  9013  00274C  CFF7 F070          	movff	tblptrh,??_ISR_alta+12
  9014  002750  CFF8 F071          	movff	tblptru,??_ISR_alta+13
  9015  002754  CFF5 F072          	movff	tablat,??_ISR_alta+14
  9016                           
  9017                           ;sterzo.c: 66: if (noChange == 1) {
  9018  002758  A043               	btfss	_noChange/(0+8),_noChange& (0+7),c
  9019  00275A  D021               	goto	i2l3959
  9020                           
  9021                           ;sterzo.c: 67: PORTCbits.RC0 = ~PORTCbits.RC0;
  9022  00275C  A082               	btfss	3970,0,c	;volatile
  9023  00275E  D002               	goto	i2u476_40
  9024  002760  0E01               	movlw	1
  9025  002762  D001               	goto	i2u476_46
  9026  002764                     i2u476_40:
  9027  002764  0E00               	movlw	0
  9028  002766                     i2u476_46:
  9029  002766  0AFF               	xorlw	255
  9030  002768  0100               	movlb	0	; () banked
  9031  00276A  6F64               	movwf	??_ISR_alta& (0+255),b
  9032  00276C  5082               	movf	3970,w,c	;volatile
  9033  00276E  0100               	movlb	0	; () banked
  9034  002770  1964               	xorwf	??_ISR_alta& (0+255),w,b
  9035  002772  0BFE               	andlw	-2
  9036  002774  1964               	xorwf	??_ISR_alta& (0+255),w,b
  9037  002776  6E82               	movwf	3970,c	;volatile
  9038                           
  9039                           ; BSR set to: 0
  9040                           ;sterzo.c: 68: T0CONbits.TMR0ON = 0;
  9041  002778  9ED5               	bcf	4053,7,c	;volatile
  9042                           
  9043                           ; BSR set to: 0
  9044                           ;sterzo.c: 69: if (PORTCbits.RC0 == 1) {
  9045  00277A  A082               	btfss	3970,0,c	;volatile
  9046  00277C  D007               	goto	i2l3953
  9047                           
  9048                           ; BSR set to: 0
  9049                           ;sterzo.c: 70: WriteTimer0(Ton);
  9050  00277E  C029  F060         	movff	_Ton,WriteTimer0@timer0
  9051  002782  C02A  F061         	movff	_Ton+1,WriteTimer0@timer0+1
  9052  002786  EC47  F015         	call	_WriteTimer0	;wreg free
  9053                           
  9054                           ;sterzo.c: 71: T0CONbits.TMR0ON = 1;
  9055  00278A  8ED5               	bsf	4053,7,c	;volatile
  9056  00278C                     i2l3953:
  9057                           
  9058                           ;sterzo.c: 72: }
  9059                           ;sterzo.c: 73: if (PORTCbits.RC0 == 0) {
  9060  00278C  B082               	btfsc	3970,0,c	;volatile
  9061  00278E  D007               	goto	i2l3959
  9062                           
  9063                           ;sterzo.c: 74: WriteTimer0(Toff);
  9064  002790  C027  F060         	movff	_Toff,WriteTimer0@timer0
  9065  002794  C028  F061         	movff	_Toff+1,WriteTimer0@timer0+1
  9066  002798  EC47  F015         	call	_WriteTimer0	;wreg free
  9067                           
  9068                           ;sterzo.c: 75: T0CONbits.TMR0ON = 1;
  9069  00279C  8ED5               	bsf	4053,7,c	;volatile
  9070  00279E                     i2l3959:
  9071                           
  9072                           ;sterzo.c: 76: }
  9073                           ;sterzo.c: 77: }
  9074                           ;sterzo.c: 78: INTCONbits.TMR0IF = 0;
  9075  00279E  94F2               	bcf	intcon,2,c	;volatile
  9076  0027A0  C072  FFF5         	movff	??_ISR_alta+14,tablat
  9077  0027A4  C071  FFF8         	movff	??_ISR_alta+13,tblptru
  9078  0027A8  C070  FFF7         	movff	??_ISR_alta+12,tblptrh
  9079  0027AC  C06F  FFF6         	movff	??_ISR_alta+11,tblptrl
  9080  0027B0  C06E  FFF4         	movff	??_ISR_alta+10,prodh
  9081  0027B4  C06D  FFF3         	movff	??_ISR_alta+9,prodl
  9082  0027B8  C06C  FFDA         	movff	??_ISR_alta+8,fsr2h
  9083  0027BC  C06B  FFD9         	movff	??_ISR_alta+7,fsr2l
  9084  0027C0  C06A  FFE2         	movff	??_ISR_alta+6,fsr1h
  9085  0027C4  C069  FFE1         	movff	??_ISR_alta+5,fsr1l
  9086  0027C8  C068  FFEA         	movff	??_ISR_alta+4,fsr0h
  9087  0027CC  C067  FFE9         	movff	??_ISR_alta+3,fsr0l
  9088  0027D0  C066  FFFB         	movff	??_ISR_alta+2,pclatu
  9089  0027D4  C065  FFFA         	movff	??_ISR_alta+1,pclath
  9090  0027D8  9246               	bcf	btemp,1,c	;clear compiler interrupt flag (level 2)
  9091  0027DA  0011               	retfie		f
  9092  0027DC                     __end_of_ISR_alta:
  9093                           	opt stack 0
  9094                           pclatu	equ	0xFFB
  9095                           pclath	equ	0xFFA
  9096                           tblptru	equ	0xFF8
  9097                           tblptrh	equ	0xFF7
  9098                           tblptrl	equ	0xFF6
  9099                           tablat	equ	0xFF5
  9100                           prodh	equ	0xFF4
  9101                           prodl	equ	0xFF3
  9102                           intcon	equ	0xFF2
  9103                           intcon2	equ	0xFF1
  9104                           postinc0	equ	0xFEE
  9105                           fsr0h	equ	0xFEA
  9106                           fsr0l	equ	0xFE9
  9107                           wreg	equ	0xFE8
  9108                           fsr1h	equ	0xFE2
  9109                           fsr1l	equ	0xFE1
  9110                           bsr	equ	0xFE0
  9111                           indf2	equ	0xFDF
  9112                           postinc2	equ	0xFDE
  9113                           postdec2	equ	0xFDD
  9114                           fsr2h	equ	0xFDA
  9115                           fsr2l	equ	0xFD9
  9116                           status	equ	0xFD8
  9117                           
  9118 ;; *************** function _WriteTimer0 *****************
  9119 ;; Defined at:
  9120 ;;		line 16 in file "P:\Programmi\Microchip\xc8\v1.35\sources\pic18\plib\Timers\t0write.c"
  9121 ;; Parameters:    Size  Location     Type
  9122 ;;  timer0          2    0[BANK0 ] unsigned int 
  9123 ;; Auto vars:     Size  Location     Type
  9124 ;;  timer           2    2[BANK0 ] struct Timers
  9125 ;; Return value:  Size  Location     Type
  9126 ;;		None               void
  9127 ;; Registers used:
  9128 ;;		None
  9129 ;; Tracked objects:
  9130 ;;		On entry : 0/0
  9131 ;;		On exit  : 0/0
  9132 ;;		Unchanged: 0/0
  9133 ;; Data sizes:     COMRAM   BANK0   BANK1   BANK2
  9134 ;;      Params:         0       2       0       0
  9135 ;;      Locals:         0       2       0       0
  9136 ;;      Temps:          0       0       0       0
  9137 ;;      Totals:         0       4       0       0
  9138 ;;Total ram usage:        4 bytes
  9139 ;; Hardware stack levels used:    1
  9140 ;; This function calls:
  9141 ;;		Nothing
  9142 ;; This function is called by:
  9143 ;;		_ISR_alta
  9144 ;; This function uses a non-reentrant model
  9145 ;;
  9146                           
  9147                           	psect	text22
  9148  002A8E                     __ptext22:
  9149                           	opt stack 0
  9150  002A8E                     _WriteTimer0:
  9151                           	opt stack 24
  9152                           
  9153                           ;incstack = 0
  9154  002A8E  C060  F062         	movff	WriteTimer0@timer0,WriteTimer0@timer
  9155  002A92  C061  F063         	movff	WriteTimer0@timer0+1,WriteTimer0@timer+1
  9156  002A96  C063  FFD7         	movff	WriteTimer0@timer+1,4055	;volatile
  9157  002A9A  C062  FFD6         	movff	WriteTimer0@timer,4054	;volatile
  9158  002A9E  0012               	return		;funcret
  9159  002AA0                     __end_of_WriteTimer0:
  9160                           	opt stack 0
  9161  0000                     pclatu	equ	0xFFB
  9162                           pclath	equ	0xFFA
  9163                           tblptru	equ	0xFF8
  9164                           tblptrh	equ	0xFF7
  9165                           tblptrl	equ	0xFF6
  9166                           tablat	equ	0xFF5
  9167                           prodh	equ	0xFF4
  9168                           prodl	equ	0xFF3
  9169                           intcon	equ	0xFF2
  9170                           intcon2	equ	0xFF1
  9171                           postinc0	equ	0xFEE
  9172                           fsr0h	equ	0xFEA
  9173                           fsr0l	equ	0xFE9
  9174                           wreg	equ	0xFE8
  9175                           fsr1h	equ	0xFE2
  9176                           fsr1l	equ	0xFE1
  9177                           bsr	equ	0xFE0
  9178                           indf2	equ	0xFDF
  9179                           postinc2	equ	0xFDE
  9180                           postdec2	equ	0xFDD
  9181                           fsr2h	equ	0xFDA
  9182                           fsr2l	equ	0xFD9
  9183                           status	equ	0xFD8
  9184                           pclatu	equ	0xFFB
  9185                           pclath	equ	0xFFA
  9186                           tblptru	equ	0xFF8
  9187                           tblptrh	equ	0xFF7
  9188                           tblptrl	equ	0xFF6
  9189                           tablat	equ	0xFF5
  9190                           prodh	equ	0xFF4
  9191                           prodl	equ	0xFF3
  9192                           intcon	equ	0xFF2
  9193                           intcon2	equ	0xFF1
  9194                           postinc0	equ	0xFEE
  9195                           fsr0h	equ	0xFEA
  9196                           fsr0l	equ	0xFE9
  9197                           wreg	equ	0xFE8
  9198                           fsr1h	equ	0xFE2
  9199                           fsr1l	equ	0xFE1
  9200                           bsr	equ	0xFE0
  9201                           indf2	equ	0xFDF
  9202                           postinc2	equ	0xFDE
  9203                           postdec2	equ	0xFDD
  9204                           fsr2h	equ	0xFDA
  9205                           fsr2l	equ	0xFD9
  9206                           status	equ	0xFD8
  9207                           
  9208                           	psect	param0
  9209  0000                     pclatu	equ	0xFFB
  9210                           pclath	equ	0xFFA
  9211                           tblptru	equ	0xFF8
  9212                           tblptrh	equ	0xFF7
  9213                           tblptrl	equ	0xFF6
  9214                           tablat	equ	0xFF5
  9215                           prodh	equ	0xFF4
  9216                           prodl	equ	0xFF3
  9217                           intcon	equ	0xFF2
  9218                           intcon2	equ	0xFF1
  9219                           postinc0	equ	0xFEE
  9220                           fsr0h	equ	0xFEA
  9221                           fsr0l	equ	0xFE9
  9222                           wreg	equ	0xFE8
  9223                           fsr1h	equ	0xFE2
  9224                           fsr1l	equ	0xFE1
  9225                           bsr	equ	0xFE0
  9226                           indf2	equ	0xFDF
  9227                           postinc2	equ	0xFDE
  9228                           postdec2	equ	0xFDD
  9229                           fsr2h	equ	0xFDA
  9230                           fsr2l	equ	0xFD9
  9231                           status	equ	0xFD8
  9232                           
  9233                           	psect	temp
  9234  000046                     btemp:
  9235                           	opt stack 0
  9236  000046                     	ds	1
  9237  0000                     int$flags	set	btemp
  9238                           pclatu	equ	0xFFB
  9239                           pclath	equ	0xFFA
  9240                           tblptru	equ	0xFF8
  9241                           tblptrh	equ	0xFF7
  9242                           tblptrl	equ	0xFF6
  9243                           tablat	equ	0xFF5
  9244                           prodh	equ	0xFF4
  9245                           prodl	equ	0xFF3
  9246                           intcon	equ	0xFF2
  9247                           intcon2	equ	0xFF1
  9248                           postinc0	equ	0xFEE
  9249                           fsr0h	equ	0xFEA
  9250                           fsr0l	equ	0xFE9
  9251                           wreg	equ	0xFE8
  9252                           fsr1h	equ	0xFE2
  9253                           fsr1l	equ	0xFE1
  9254                           bsr	equ	0xFE0
  9255                           indf2	equ	0xFDF
  9256                           postinc2	equ	0xFDE
  9257                           postdec2	equ	0xFDD
  9258                           fsr2h	equ	0xFDA
  9259                           fsr2l	equ	0xFD9
  9260                           status	equ	0xFD8


Data Sizes:
    Strings     0
    Constant    0
    Data        4
    BSS         58
    Persistent  0
    Stack       0

Auto Spaces:
    Space          Size  Autos    Used
    COMRAM           94     34      69
    BANK0           160     49      77
    BANK1           256      0       0
    BANK2           256      0       0

Pointer List with Targets:

    CANreceiveMessage@msg	PTR struct . size(2) Largest target is 15
		 -> msg(COMRAM[15]), 

    CANsendMessage@data	PTR unsigned char  size(2) Largest target is 8
		 -> data_array(COMRAM[8]), 


Critical Paths under _main in COMRAM

    None.

Critical Paths under _ISR_alta in COMRAM

    None.

Critical Paths under _ISR_bassa in COMRAM

    _ISR_bassa->i1_CANsendMessage
    ___lwdiv->i1___wmul

Critical Paths under _main in BANK0

    _send_data->_CANsendMessage
    _delay_ms->___wmul
    _configurazione_iniziale->_CANInitialize
    _CANInitialize->_CANSetFilter
    _CANInitialize->_CANSetMask
    ___lldiv->___lmul

Critical Paths under _ISR_alta in BANK0

    _ISR_alta->_WriteTimer0

Critical Paths under _ISR_bassa in BANK0

    None.

Critical Paths under _main in BANK1

    None.

Critical Paths under _ISR_alta in BANK1

    None.

Critical Paths under _ISR_bassa in BANK1

    None.

Critical Paths under _main in BANK2

    None.

Critical Paths under _ISR_alta in BANK2

    None.

Critical Paths under _ISR_bassa in BANK2

    None.

Call Graph Tables:

 ---------------------------------------------------------------------------------
 (Depth) Function   	        Calls       Base Space   Used Autos Params    Refs
 ---------------------------------------------------------------------------------
 (0) _main                                                 4     4      0    9760
                                             45 BANK0      4     4      0
                   _CANisRXwarningON
                   _CANisTXwarningON
                            ___lldiv
                             ___lmul
            _configurazione_iniziale
                           _delay_ms
                          _send_data
 ---------------------------------------------------------------------------------
 (1) _send_data                                            0     0      0    2571
                       _CANisTxReady
                     _CANsendMessage
 ---------------------------------------------------------------------------------
 (2) _CANsendMessage                                      16     8      8    2547
                                             19 BANK0     16     8      8
 ---------------------------------------------------------------------------------
 (2) _CANisTxReady                                         1     1      0      24
                                             19 BANK0      1     1      0
 ---------------------------------------------------------------------------------
 (1) _delay_ms                                             2     0      2     643
                                             25 BANK0      2     0      2
                             ___wmul
 ---------------------------------------------------------------------------------
 (2) ___wmul                                               6     2      4     365
                                             19 BANK0      6     2      4
 ---------------------------------------------------------------------------------
 (1) _configurazione_iniziale                              0     0      0    5934
                      _CANInitialize
 ---------------------------------------------------------------------------------
 (2) _CANInitialize                                       12     7      5    5934
                                             33 BANK0     12     7      5
                   _CANOperationMode
                       _CANSetFilter
                         _CANSetMask
 ---------------------------------------------------------------------------------
 (3) _CANSetMask                                          14     9      5    1286
                                             19 BANK0     14     9      5
 ---------------------------------------------------------------------------------
 (3) _CANSetFilter                                        14     9      5    3858
                                             19 BANK0     14     9      5
 ---------------------------------------------------------------------------------
 (3) _CANOperationMode                                     1     1      0      44
                                             19 BANK0      1     1      0
 ---------------------------------------------------------------------------------
 (1) ___lmul                                              12     4      8     322
                                             19 BANK0     12     4      8
 ---------------------------------------------------------------------------------
 (1) ___lldiv                                             13     5      8     290
                                             31 BANK0     13     5      8
                             ___lmul (ARG)
 ---------------------------------------------------------------------------------
 (1) _CANisTXwarningON                                     0     0      0       0
 ---------------------------------------------------------------------------------
 (1) _CANisRXwarningON                                     0     0      0       0
 ---------------------------------------------------------------------------------
 Estimated maximum stack depth 3
 ---------------------------------------------------------------------------------
 (Depth) Function   	        Calls       Base Space   Used Autos Params    Refs
 ---------------------------------------------------------------------------------
 (4) _ISR_bassa                                           18    18      0    3903
                                             16 COMRAM    18    18      0
                       _CANisRxReady
                  _CANreceiveMessage
                            ___lwdiv
                   i1_CANsendMessage
                           i1___wmul
 ---------------------------------------------------------------------------------
 (5) i1___wmul                                             6     2      4     209
                                              0 COMRAM     6     2      4
 ---------------------------------------------------------------------------------
 (5) i1_CANsendMessage                                    16     8      8    2243
                                              0 COMRAM    16     8      8
 ---------------------------------------------------------------------------------
 (5) ___lwdiv                                              7     3      4     290
                                              6 COMRAM     7     3      4
                           i1___wmul (ARG)
 ---------------------------------------------------------------------------------
 (5) _CANreceiveMessage                                   12    10      2    1137
                                              0 COMRAM    12    10      2
 ---------------------------------------------------------------------------------
 (5) _CANisRxReady                                         1     1      0      24
                                              0 COMRAM     1     1      0
 ---------------------------------------------------------------------------------
 Estimated maximum stack depth 5
 ---------------------------------------------------------------------------------
 (Depth) Function   	        Calls       Base Space   Used Autos Params    Refs
 ---------------------------------------------------------------------------------
 (6) _ISR_alta                                            15    15      0     253
                                              4 BANK0     15    15      0
                        _WriteTimer0
 ---------------------------------------------------------------------------------
 (7) _WriteTimer0                                          4     2      2     253
                                              0 BANK0      4     2      2
 ---------------------------------------------------------------------------------
 Estimated maximum stack depth 7
 ---------------------------------------------------------------------------------

 Call Graph Graphs:

 _main (ROOT)
   _CANisRXwarningON
   _CANisTXwarningON
   ___lldiv
     ___lmul (ARG)
   ___lmul
   _configurazione_iniziale
     _CANInitialize
       _CANOperationMode
       _CANSetFilter
       _CANSetMask
   _delay_ms
     ___wmul
   _send_data
     _CANisTxReady
     _CANsendMessage

 _ISR_bassa (ROOT)
   _CANisRxReady
   _CANreceiveMessage
   ___lwdiv
     i1___wmul (ARG)
   i1_CANsendMessage
   i1___wmul

 _ISR_alta (ROOT)
   _WriteTimer0

 Address spaces:
Name               Size   Autos  Total    Cost      Usage
BIGRAM             2FF      0       0      10        0.0%
EEDATA             100      0       0       0        0.0%
BITBANK2           100      0       0       7        0.0%
BANK2              100      0       0       8        0.0%
BITBANK1           100      0       0       5        0.0%
BANK1              100      0       0       6        0.0%
BITBANK0            A0      0       0       3        0.0%
BANK0               A0     31      4D       4       48.1%
BITCOMRAM           5E      0       1       0        1.1%
COMRAM              5E     22      45       1       73.4%
BITSFR_3             0      0       0      40        0.0%
SFR_3                0      0       0      40        0.0%
BITSFR_2             0      0       0      40        0.0%
SFR_2                0      0       0      40        0.0%
BITSFR_1             0      0       0      40        0.0%
SFR_1                0      0       0      40        0.0%
BITSFR               0      0       0      40        0.0%
SFR                  0      0       0      40        0.0%
STACK                0      0       0       2        0.0%
NULL                 0      0       0       0        0.0%
ABS                  0      0      92       9        0.0%
DATA                 0      0      92      11        0.0%
CODE                 0      0       0       0        0.0%


Microchip Technology PIC18 Macro Assembler V1.35 build -356382666 
Symbol Table                                                                                   Tue Mar 22 18:59:52 2016

              ??_CANisTXwarningON 0073              __end_of_CANSetFilter 0C8C  
                              _id 0023                                bsr 000FE0  
             ___wmul@multiplicand 0075                       __CFG_BORV$3 000000  
                i1___wmul@product 0005                      __CFG_CP0$OFF 000000  
                    __CFG_CP1$OFF 000000                       __CFG_OSC$HS 000000  
                             l410 21BE                               l411 21C2  
                             l500 0C30                               l420 22CA  
                             l412 21CE                               l340 0CA2  
                             l501 0C34                               l421 22D6  
                             l413 21D2                               l341 0CA6  
                             l502 0C40                               l422 22DA  
                             l414 21DE                               l334 240E  
                             l350 0E60                               l342 0D9E  
                             l423 22E6                               l415 21E2  
                             l335 2418                               l351 0E6C  
                             l343 0D2E                               l440 067A  
                             l424 22EA                               l416 21EE  
                             l408 21AE                               l360 0FC6  
                             l344 0D38                               l441 0686  
                             l425 22F6                               l409 21B2  
                             l361 0FD0                               l345 0D42  
                             l450 0790                               l442 068A  
                             l426 22FA                               l370 11AE  
                             l354 1194                               l346 0D4C  
                             l451 0794                               l443 0696  
                             l427 2306                               l419 22C6  
                             l371 12A6                               l355 0F26  
                             l339 0F10                               l452 07A0  
                             l444 069A                               l532 2A5C  
                             l380 1374                               l372 1236  
                             l364 10E0                               l356 0F2A  
                             l461 08AC                               l453 07A4  
                             l445 06A6                               l373 1240  
                             l365 10E4                               l357 1022  
                             l349 0E5C                               l462 08B0  
                             l454 07B0                               l446 06AA  
                             l374 124A                               l366 10F0  
                             l358 0FB2                               l463 08BC  
                             l455 07B4                               l447 06B6  
                             l439 0676                               l375 1254  
                             l359 0FBC                               l480 0A08  
                             l472 09C8                               l464 08C0  
                             l456 07C0                               l473 09CC  
                             l465 08CC                               l457 07C4  
                             l545 29D4                               l369 11AA  
                             l490 0B18                               l474 09D8  
                             l466 08D0                               l458 07D0  
                             l378 1364                               l491 0B24  
                             l483 0AE4                               l475 09DC  
                             l467 08DC                               l379 1368  
                             l484 0AE8                               l476 09E8  
                             l468 08E0                               l485 0AF4  
                             l477 09EC                               l469 08EC  
                             l494 0C00                               l486 0AF8  
                             l478 09F8                               l495 0C04  
                             l487 0B04                               l479 09FC  
                             l496 0C10                               l488 0B08  
                             l497 0C14                               l489 0B14  
                             l498 0C20                               l499 0C24  
                             l973 2714                      __CFG_CPB$OFF 000000  
                    __CFG_CPD$OFF 000000                               _Ton 0029  
            __size_of_WriteTimer0 0012                               _msg 002C  
                             wreg 000FE8             _currentSteering_array 0099  
                    __CFG_LVP$OFF 000000                      __CFG_WDT$OFF 000000  
                            l3005 0C44                              l3121 0E70  
                            l3051 241C                              l3115 0E50  
                            l3055 2424                              l2601 2A6A  
                            l3057 2468                              l3049 2406  
                            l3171 0FDA                              l3247 125E  
                            l3191 10D4                              l3095 0D56  
                            l3273 1378                              l2635 2122  
                            l2619 206C                              l3267 1358  
                            l3541 2814                              l2717 0244  
                            l2661 21F2                              l3197 10F4  
                            l3533 29A4                              l3551 2698  
                            l2903 08F0                              l2807 05E4  
                            l2735 02FC                              l3553 26A8  
                            l3537 27EE                              l2841 0700  
                            l2753 03B6                              l3563 2702  
                            l3555 26AE                              l2835 06BA  
                            l2771 0470                              l2667 2238  
                            l3467 29C6                              l2909 0936  
                            l2693 230A                              l2943 0A52  
                            l2937 0A0C                              l2971 0B28  
                            l2875 081A                              l2869 07D4  
                            l2789 052A                              l2977 0B6E  
                            l3899 2540                              u3100 0910  
                            u3020 07F4                              _LATA 000F89  
                            _LATB 000F8A                              _LATC 000F8B  
                            _LATD 000F8C                              u3105 0904  
                            u3025 07E8                              _LATE 000F8D  
                            u2410 1FE8                              u2415 1FDC  
                            u2425 2048                              u4050 2AA8  
                            u2450 209E                              u4060 2AB4  
                            u3340 0C64                              u3260 0B48  
                            u3180 0A2C                              u2620 232A  
                            u2540 2212                              u2455 2092  
                            u3600 0FFA                              u3345 0C58  
                            u3265 0B3C                              u3185 0A20  
                            u2705 02D8                              u2625 231E  
                            u2545 2206                              u2465 20FE  
                            u2810 04A6                              u2730 0332  
                            u2650 01C0                              u3610 1046  
                            u3605 0FEE                              u3470 0D76  
                            u2815 049A                              u2735 0326  
                            u2655 01B4                              u3615 103A  
                            u3480 0DC2                              u2825 0506  
                            u2745 0392                              u2665 0220  
                            u3625 10A6                              u2850 0560  
                            u2770 03EC                              u2690 0278  
                            u3730 127E                              u3475 0D6A  
                            u2940 06DA                              u3740 12CA  
                            u3485 0DB6                              u2855 0554  
                            u2775 03E0                              u2695 026C  
                            u3735 1272                              u3495 0E22  
                            u2945 06CE                              u2865 05C0  
                            u2785 044C                              u3745 12BE  
                            u3755 132A                              u4797 29C8  
        __end_ofi1_CANsendMessage 1AA8               __size_of_CANSetMask 039E  
                            _Toff 0027                              _main 2518  
                            fsr0h 000FEA                              fsr1h 000FE2  
                            fsr0l 000FE9                              fsr2h 000FDA  
                            fsr1l 000FE1                              indf2 000FDF  
                            fsr2l 000FD9                              btemp 0046  
                            pclat 000FFA                              prodh 000FF4  
                            prodl 000FF3                              start 0182  
                   __CFG_IESO$OFF 000000                     __CFG_MCLRE$ON 000000  
                    ___param_bank 000000                  _CANOperationMode 2A62  
      __size_of_CANreceiveMessage 050C                             ?_main 0001  
                 __end_of___lldiv 2726                             _T0CON 000FD5  
                 __end_of___lwdiv 296A                             i1l340 142C  
                           i1l341 1430                             i1l350 15A8  
                           i1l342 1500                             i1l351 15B2  
                           i1l343 149E                             i1l360 16DE  
                           i1l344 14A6                             i1l361 16E6  
                           i1l345 14AE                             i1l370 1890  
                           i1l354 1878                             i1l346 14B6  
                           i1l371 1960                             i1l355 165C  
                           i1l339 1648                             i1l380 1A12  
                           i1l372 18FE                             i1l364 17D4  
                           i1l356 1660                             i1l373 1906  
                           i1l365 17D8                             i1l357 1730  
                           i1l349 15A4                             i1l374 190E  
                           i1l366 17E2                             i1l358 16CE  
                           i1l375 1916                             i1l359 16D6  
                           i1l537 2A8A                             i1l369 188C  
                           i1l386 1D40                             i1l378 1A04  
                           i1l379 1A08                             i1l597 013A  
                           _TMR0H 000FD7                             _TMR0L 000FD6  
               _CANisRxReady$2802 0001                             _TRISA 000F92  
                           _TRISB 000F93                             _TRISC 000F94  
                           _TRISD 000F95                             _TRISE 000F96  
                   __CFG_PWRT$OFF 000000                     __CFG_WRT0$OFF 000000  
                   __CFG_WRT1$OFF 000000               ___lmul@multiplicand 0077  
              __size_of_ISR_bassa 016A                    __CFG_EBTR0$OFF 000000  
                  __CFG_FCMEN$OFF 000000                    __CFG_EBTR1$OFF 000000  
              CANInitialize@flags 0085                  __end_of_ISR_alta 27DC  
                   __CFG_WRTB$OFF 000000                     __CFG_WRTC$OFF 000000  
                   __CFG_WRTD$OFF 000000                    __CFG_EBTRB$OFF 000000  
                           _timer 00A5                    __pbitbssCOMRAM 0218  
            __end_of_CANisRxReady 2A8E                             tablat 000FF5  
            __end_of_CANisTxReady 2A62                  __end_ofi1___wmul 2A3E  
                           status 000FD8               i1___wmul@multiplier 0001  
                  __CFG_PBADEN$ON 000000                   __initialization 28C0  
                    __end_of_main 266A                            ??_main 008D  
                   __activetblptr 000002                 _CANisTxReady$2800 0073  
                   _counter_array 0091                            _CANCON 000F6F  
                 __CFG_BBSIZ$1024 000000                            i1l1026 2960  
                          i1l3441 1F7E                            i1l3433 1F46  
                          i1l3425 1F0E                            i1l3417 1EA0  
                          i1l3443 1FB0                            i1l3371 1CCC  
                          i1l3363 1C90                            i1l3355 1C20  
                          i1l3437 1F62                            i1l3429 1F2A  
                          i1l3381 1D3A                            i1l3621 14BE  
                          i1l3375 1CEA                            i1l3367 1CAE  
                          i1l3641 159A                            i1l3379 1D08  
                          i1l3723 17E6                            i1l3573 292E  
                          i1l3717 17CA                            i1l3575 2936  
                          i1l3647 15B6                            i1l3585 2956  
                          i1l3577 293A                            i1l3773 191E  
                          i1l3793 19FA                            i1l3697 16EE  
                          i1l3881 0136                            i1l3867 00CE  
                          i1l3799 1A16                            i2l3953 278C  
                          i2l3959 279E                            _RXB0D0 000F66  
                          _RXB0D1 000F67                            _RXB0D2 000F68  
                          _RXB0D3 000F69                            _RXB0D4 000F6A  
                          _RXB1D0 000F56                            _RXB0D5 000F6B  
                          _RXB1D1 000F57                            _RXB0D6 000F6C  
                          _RXB1D2 000F58                            _RXB0D7 000F6D  
                          _RXB1D3 000F59                            _RXB1D4 000F5A  
                          _RXB1D5 000F5B                            _RXB1D6 000F5C  
                          _RXB1D7 000F5D                            _TXB0D0 000F46  
                          _TXB0D1 000F47                            _TXB0D2 000F48  
                          _TXB0D3 000F49                            _TXB1D0 000F36  
                          _TXB0D4 000F4A                            _TXB1D1 000F37  
                          _TXB0D5 000F4B                            _TXB1D2 000F38  
                          _TXB0D6 000F4C                            _TXB1D3 000F39  
                          _TXB0D7 000F4D                            _TXB2D0 000F26  
                          _TXB1D4 000F3A                            _TXB2D1 000F27  
                          _TXB1D5 000F3B                            _TXB2D2 000F28  
                          _TXB1D6 000F3C                            _TXB2D3 000F29  
                          _TXB1D7 000F3D                            _TXB2D4 000F2A  
                          _TXB2D5 000F2B                            _TXB2D6 000F2C  
                          _TXB2D7 000F2D                CANsendMessage@data 0077  
              CANsendMessage@tamp 007F                  __end_of_delay_ms 29E2  
           __size_of_CANSetFilter 0B06                    __CFG_XINST$OFF 000000  
               __end_of_ISR_bassa 0182                            ___lmul 27DC  
                          ___wmul 29E2                    __CFG_STVREN$ON 000000  
                       ??___lldiv 0087                         ??___lwdiv 000B  
                    ??_CANSetMask 0078                            clear_0 28C6  
                          clear_1 28D4          ?_configurazione_iniziale 0001  
                 __CFG_BOREN$BOHW 000000                      __pdataCOMRAM 0044  
                          tblptrh 000FF7                            tblptrl 000FF6  
                          tblptru 000FF8                   _currentSteering 00AB  
                    _CANSetFilter 0186                        __accesstop 0060  
         __end_of__initialization 290A                __end_of_CANSetMask 2352  
                   ___rparam_used 000000         __size_of_CANisRXwarningON 000C  
                  __pcstackCOMRAM 0001                      __pidataBANK0 2ABA  
                       ?_ISR_alta 0001                         ?i1___wmul 0001  
           CANSetFilter@numBuffer 007C         __size_of_CANisTXwarningON 000C  
           __size_of_CANisRxReady 0016             __size_of_CANisTxReady 0024  
        __end_of_CANOperationMode 2A78                        __pbssBANK0 0091  
               ?i1_CANsendMessage 0001                        _data_array 003B  
         __size_of_CANsendMessage 078C                ??i1_CANsendMessage 0009  
                         ?___lmul 0073                           ?___wmul 0073  
                      ??_ISR_alta 0064                __size_of_send_data 003E  
                WriteTimer0@timer 0062                     ??_WriteTimer0 0062  
                  ___lmul@product 007B                      _CANisRxReady 2A78  
                         _CANSTAT 000F6E                      _CANisTxReady 2A3E  
                         _BRGCON1 000F70                           _BRGCON2 000F71  
                         _BRGCON3 000F72                        ??i1___wmul 0005  
          __size_of_CANInitialize 01C6                         ?_delay_ms 0079  
                         _RXB0DLC 000F65                           _RXB1DLC 000F55  
                         _RXB0CON 000F60                           _RXB1CON 000F50  
                         _TXB0DLC 000F45                           _TXB1DLC 000F35  
                         _TXB2DLC 000F25               CANsendMessage@flags 007A  
                         __Hparam 0000                           __Lparam 0000  
                delay_ms@value_ms 0079                   __size_of___lmul 0076  
                         ___lldiv 266A                   __size_of___wmul 0036  
                         ___lwdiv 2918              CANInitialize@propSeg 008A  
                         __pcinit 28C0                           __ramtop 0300  
                         __ptext0 2518                           __ptext1 296A  
                         __ptext2 0C8C                           __ptext3 2A3E  
                         __ptext4 29A8                           __ptext5 29E2  
                         __ptext6 2852                           __ptext7 2352  
                         __ptext8 1FB4                           __ptext9 0186  
                       _T0CONbits 000FD5                        _duty_cycle 00A1  
             __end_of_WriteTimer0 2AA0                        ??_delay_ms 007B  
          CANreceiveMessage@error 000B                    __pintcode_body 2726  
            end_of_initialization 290A                 __end_of_send_data 29A8  
                   __Lmediumconst 0000                           int_func 2726  
                _CANisRXwarningON 2AAC                     _CANInitialize 2352  
                 ___lldiv@divisor 0083                   ___lldiv@counter 008B  
                         postdec2 000FDD                           postinc0 000FEE  
                         postinc2 000FDE             i1___wmul@multiplicand 0003  
                       _ISR_bassa 0018                         _PORTAbits 000F80  
                  CANSetMask@mask 0073                         _PORTCbits 000F82  
                  CANSetMask@tamp 007D                    CANSetMask@type 0077  
                _CANisTXwarningON 2AA0  __size_of_configurazione_iniziale 006E  
         _clock_counter_reference 00A9                    _CANsendMessage 0C8C  
                CANInitialize@BRP 0084                  CANInitialize@SJW 0083  
                  ?_CANInitialize 0081                    __end_of___lmul 2852  
                      ?_ISR_bassa 0001                    __end_of___wmul 2A18  
                   __pidataCOMRAM 2AB8                 __size_of_ISR_alta 27D4  
                     _WriteTimer0 2A8E               start_initialization 28C0  
               __size_ofi1___wmul 0026               CANSetMask@numBuffer 007C  
          __end_of_CANsendMessage 1418                 ?_CANOperationMode 0001  
              ??_CANOperationMode 0073        CANInitialize@FilterConfig1 008B  
      CANInitialize@FilterConfig2 008C                          ??___lmul 007B  
                        ??___wmul 0077                       __pdataBANK0 00AB  
                __CFG_LPT1OSC$OFF 000000         __size_ofi1_CANsendMessage 0690  
          CANInitialize@phaseSeg1 0081            CANInitialize@phaseSeg2 0082  
                     __pbssCOMRAM 0023                     __pcstackBANK0 0060  
                     _BRGCON2bits 000F71                       _BRGCON3bits 000F72  
               __size_of_delay_ms 003A                   ?_CANsendMessage 0073  
                 ??_CANInitialize 0086                CANSetFilter@filter 0073  
                  _theorySteering 002B                  ___lwdiv@dividend 0007  
                       __pintcode 0008                          ?___lldiv 007F  
                        ?___lwdiv 0007                       ??_ISR_bassa 0011  
                     __pintcodelo 0018                 WriteTimer0@timer0 0060  
        __end_of_CANisRXwarningON 2AB8                       _COMSTATbits 000F74  
                ___lwdiv@quotient 000B           _configurazione_iniziale 2852  
           CANreceiveMessage@tamp 000C                    ___wmul@product 0077  
    _delay_quartz_frequency_value 00AC                          _IPR3bits 000FA5  
                       _send_data 296A                          _PIE3bits 000FA3  
        __end_of_CANisTXwarningON 2AAC                          i1u404_25 1F8A  
                        i1u430_25 156E                          i1u441_20 170C  
                        i1u441_25 1702                          i1u442_20 1752  
                        i1u442_25 1748                          i1u443_25 179E  
                        i1u428_20 14DC                          i1u428_25 14D2  
                        i1u429_20 1522                          i1u429_25 1518  
                        i1u454_20 193C                          i1u470_20 00EA  
                        i1u454_25 1932                          i1u470_26 00EC  
                        i1u455_20 1982                          i1u455_25 1978  
                        i1u384_20 1B60                          i1u456_25 19CE  
                        i1u384_26 1B62                          i1u385_20 1B8E  
                        i1u393_25 1D14                          i1u385_26 1B90  
                        i1u466_20 009A                          i1u395_20 1DE8  
                        i1u387_25 1BA4                          i1u467_25 009C  
                        i1u395_26 1DEA                          i1u396_20 1E12  
                        i1u396_26 1E14                          i1u398_25 1E26  
                        _PIR3bits 000FA4                          i2u476_40 2764  
                        i2u476_46 2766                          _RXB0EIDH 000F63  
                        _RXB0EIDL 000F64                          _RXB1EIDH 000F53  
                        _RXB1EIDL 000F54                          _RCONbits 000FD0  
                __CFG_WDTPS$32768 000000                          _RXB0SIDH 000F61  
                        _RXB0SIDL 000F62                          _RXF0EIDH 000F02  
                        _RXB1SIDH 000F51                          _RXF0EIDL 000F03  
                        _RXB1SIDL 000F52                          _RXF1EIDH 000F06  
                        _RXF1EIDL 000F07                          _RXF2EIDH 000F0A  
                        _RXF2EIDL 000F0B                          _RXF3EIDH 000F0E  
                        _RXF3EIDL 000F0F                          _RXF4EIDH 000F12  
                        _RXF4EIDL 000F13                          _RXF5EIDH 000F16  
                        _RXF5EIDL 000F17                          _RXF0SIDH 000F00  
                        _RXF0SIDL 000F01                          _TXB0EIDH 000F43  
                        _RXF1SIDH 000F04                          _TXB0EIDL 000F44  
                        _RXF1SIDL 000F05                          _TXB1EIDH 000F33  
                        _RXF2SIDH 000F08                          _TXB1EIDL 000F34  
                        _RXF2SIDL 000F09                          _ISR_alta 0008  
                        _TXB2EIDH 000F23                          _RXF3SIDH 000F0C  
                        _TXB2EIDL 000F24                          _RXF3SIDL 000F0D  
                        _RXF4SIDH 000F10                          _RXF4SIDL 000F11  
                        _RXF5SIDH 000F14                          _RXF5SIDL 000F15  
                        _RXM0EIDH 000F1A                          _RXM0EIDL 000F1B  
                        _TXB0SIDH 000F41                          _RXM1EIDH 000F1E  
                        _TXB0SIDL 000F42                          _RXM1EIDL 000F1F  
                        _TXB1SIDH 000F31                          _TXB1SIDL 000F32  
                        _TXB2SIDH 000F21                          _TXB2SIDL 000F22  
                        _RXM0SIDH 000F18                          _RXM0SIDL 000F19  
                        _RXM1SIDH 000F1C                          _RXM1SIDL 000F1D  
                        _RXERRCNT 000F75                          _TXERRCNT 000F76  
               ___wmul@multiplier 0073                          i1___wmul 2A18  
                   ?_CANSetFilter 0073                 ___lmul@multiplier 0073  
                     _INTCON2bits 000FF1                        _CANCONbits 000F6F  
                        __Hparam0 0000                        ?_send_data 0001  
                        __Lparam0 0000                      _RXB0SIDLbits 000F62  
                    _RXB1SIDLbits 000F52                        _CANSetMask 1FB4  
                __size_of___lldiv 00BC                  i1_CANsendMessage 1418  
                __size_of___lwdiv 0052                      ?_WriteTimer0 0060  
       ??_configurazione_iniziale 008D                      _RXF0SIDLbits 000F01  
                        _delay_ms 29A8                   ___lwdiv@divisor 0009  
                    _RXF1SIDLbits 000F05                   ___lwdiv@counter 000D  
           i1CANsendMessage@flags 0008                    ??_CANSetFilter 0078  
                        __ptext10 2A62                          __ptext11 27DC  
                        __ptext20 2A78                          __ptext12 266A  
                        __ptext13 2AA0                          __ptext22 2A8E  
                        __ptext14 2AAC                          __ptext16 2A18  
                        __ptext17 1418                          __ptext18 2918  
                        __ptext19 1AA8                      _RXF2SIDLbits 000F09  
                        _noChange 0218                      _RXF3SIDLbits 000F0D  
                    _RXF4SIDLbits 000F11                      _RXF5SIDLbits 000F15  
        CANsendMessage@dataLength 0079                      _remote_frame 0219  
                   __size_of_main 0152                          _limiteDx 0044  
            CANreceiveMessage@msg 0001                      _TXB0SIDLbits 000F42  
                    _TXB1SIDLbits 000F32                      _TXB2SIDLbits 000F22  
                        int$flags 0046         __size_of_CANOperationMode 0016  
                   ?_CANisRxReady 0001                     ?_CANisTxReady 0001  
                     _RXB0DLCbits 000F65                       _RXB1DLCbits 000F55  
                    _RXM0SIDLbits 000F19                       _RXB0CONbits 000F60  
                     _RXB1CONbits 000F50                 _CANreceiveMessage 1AA8  
                    _RXM1SIDLbits 000F1D                        _INTCONbits 000FF2  
                ??_CANsendMessage 007B        i1CANsendMessage@dataLength 0007  
              ?_CANreceiveMessage 0001          CANsendMessage@identifier 0073  
                        intlevel1 0000                          intlevel2 0000  
                CANSetFilter@tamp 007D                  CANSetFilter@type 0077  
             ??_CANreceiveMessage 0003              i1CANsendMessage@data 0005  
                ___lldiv@dividend 007F              i1CANsendMessage@tamp 000D  
                     _TXB0DLCbits 000F45                       _TXB1DLCbits 000F35  
                     _TXB0CONbits 000F40                       ??_send_data 0083  
                     _TXB2DLCbits 000F25   __end_of_configurazione_iniziale 28C0  
                     _TXB1CONbits 000F30                       _TXB2CONbits 000F20  
            CANOperationMode@mode 0073                    ??_CANisRxReady 0001  
                     ?_CANSetMask 0073                    ??_CANisTxReady 0073  
       __end_of_CANreceiveMessage 1FB4        i1CANsendMessage@identifier 0001  
                ___lldiv@quotient 0087                 ?_CANisRXwarningON 0001  
              ??_CANisRXwarningON 0073             __end_of_CANInitialize 2518  
               ?_CANisTXwarningON 0001  
